Archive member included to satisfy reference by file (symbol)

c:/siliconlabs/simplicitystudio/v5/developer/toolchains/gnu_arm/12.2.rel1_2023.7/bin/../lib/gcc/arm-none-eabi/12.2.1/thumb/v7e-m+fp/softfp\libgcc.a(_arm_addsubdf3.o)
                              ./wiseconnect3_sdk_3.3.0/components/device/silabs/si91x/mcu/drivers/peripheral_drivers/src/clock_update.o (__aeabi_dadd)
c:/siliconlabs/simplicitystudio/v5/developer/toolchains/gnu_arm/12.2.rel1_2023.7/bin/../lib/gcc/arm-none-eabi/12.2.1/thumb/v7e-m+fp/softfp\libgcc.a(_arm_muldivdf3.o)
                              ./wiseconnect3_sdk_3.3.0/components/device/silabs/si91x/mcu/drivers/peripheral_drivers/src/clock_update.o (__aeabi_ddiv)
c:/siliconlabs/simplicitystudio/v5/developer/toolchains/gnu_arm/12.2.rel1_2023.7/bin/../lib/gcc/arm-none-eabi/12.2.1/thumb/v7e-m+fp/softfp\libgcc.a(_arm_fixunsdfsi.o)
                              ./wiseconnect3_sdk_3.3.0/components/device/silabs/si91x/mcu/drivers/peripheral_drivers/src/clock_update.o (__aeabi_d2uiz)
c:/siliconlabs/simplicitystudio/v5/developer/toolchains/gnu_arm/12.2.rel1_2023.7/bin/../lib/gcc/arm-none-eabi/12.2.1/thumb/v7e-m+fp/softfp\libc_nano.a(libc_a-exit.o)
                              c:/siliconlabs/simplicitystudio/v5/developer/toolchains/gnu_arm/12.2.rel1_2023.7/bin/../lib/gcc/arm-none-eabi/12.2.1/thumb/v7e-m+fp/softfp/crt0.o (exit)
c:/siliconlabs/simplicitystudio/v5/developer/toolchains/gnu_arm/12.2.rel1_2023.7/bin/../lib/gcc/arm-none-eabi/12.2.1/thumb/v7e-m+fp/softfp\libc_nano.a(libc_a-nano-vfprintf_float.o)
                              (_printf_float)
c:/siliconlabs/simplicitystudio/v5/developer/toolchains/gnu_arm/12.2.rel1_2023.7/bin/../lib/gcc/arm-none-eabi/12.2.1/thumb/v7e-m+fp/softfp\libc_nano.a(libc_a-nano-vfprintf_i.o)
                              c:/siliconlabs/simplicitystudio/v5/developer/toolchains/gnu_arm/12.2.rel1_2023.7/bin/../lib/gcc/arm-none-eabi/12.2.1/thumb/v7e-m+fp/softfp\libc_nano.a(libc_a-nano-vfprintf_float.o) (_printf_common)
c:/siliconlabs/simplicitystudio/v5/developer/toolchains/gnu_arm/12.2.rel1_2023.7/bin/../lib/gcc/arm-none-eabi/12.2.1/thumb/v7e-m+fp/softfp\libc_nano.a(libc_a-findfp.o)
                              c:/siliconlabs/simplicitystudio/v5/developer/toolchains/gnu_arm/12.2.rel1_2023.7/bin/../lib/gcc/arm-none-eabi/12.2.1/thumb/v7e-m+fp/softfp\libc_nano.a(libc_a-exit.o) (__stdio_exit_handler)
c:/siliconlabs/simplicitystudio/v5/developer/toolchains/gnu_arm/12.2.rel1_2023.7/bin/../lib/gcc/arm-none-eabi/12.2.1/thumb/v7e-m+fp/softfp\libc_nano.a(libc_a-fwalk.o)
                              c:/siliconlabs/simplicitystudio/v5/developer/toolchains/gnu_arm/12.2.rel1_2023.7/bin/../lib/gcc/arm-none-eabi/12.2.1/thumb/v7e-m+fp/softfp\libc_nano.a(libc_a-findfp.o) (_fwalk_sglue)
c:/siliconlabs/simplicitystudio/v5/developer/toolchains/gnu_arm/12.2.rel1_2023.7/bin/../lib/gcc/arm-none-eabi/12.2.1/thumb/v7e-m+fp/softfp\libc_nano.a(libc_a-printf.o)
                              ./ampak_gspi_util.o (printf)
c:/siliconlabs/simplicitystudio/v5/developer/toolchains/gnu_arm/12.2.rel1_2023.7/bin/../lib/gcc/arm-none-eabi/12.2.1/thumb/v7e-m+fp/softfp\libc_nano.a(libc_a-puts.o)
                              ./ampak_gspi_util.o (puts)
c:/siliconlabs/simplicitystudio/v5/developer/toolchains/gnu_arm/12.2.rel1_2023.7/bin/../lib/gcc/arm-none-eabi/12.2.1/thumb/v7e-m+fp/softfp\libc_nano.a(libc_a-stdio.o)
                              c:/siliconlabs/simplicitystudio/v5/developer/toolchains/gnu_arm/12.2.rel1_2023.7/bin/../lib/gcc/arm-none-eabi/12.2.1/thumb/v7e-m+fp/softfp\libc_nano.a(libc_a-findfp.o) (__sread)
c:/siliconlabs/simplicitystudio/v5/developer/toolchains/gnu_arm/12.2.rel1_2023.7/bin/../lib/gcc/arm-none-eabi/12.2.1/thumb/v7e-m+fp/softfp\libc_nano.a(libc_a-wbuf.o)
                              c:/siliconlabs/simplicitystudio/v5/developer/toolchains/gnu_arm/12.2.rel1_2023.7/bin/../lib/gcc/arm-none-eabi/12.2.1/thumb/v7e-m+fp/softfp\libc_nano.a(libc_a-puts.o) (__swbuf_r)
c:/siliconlabs/simplicitystudio/v5/developer/toolchains/gnu_arm/12.2.rel1_2023.7/bin/../lib/gcc/arm-none-eabi/12.2.1/thumb/v7e-m+fp/softfp\libc_nano.a(libc_a-wsetup.o)
                              c:/siliconlabs/simplicitystudio/v5/developer/toolchains/gnu_arm/12.2.rel1_2023.7/bin/../lib/gcc/arm-none-eabi/12.2.1/thumb/v7e-m+fp/softfp\libc_nano.a(libc_a-puts.o) (__swsetup_r)
c:/siliconlabs/simplicitystudio/v5/developer/toolchains/gnu_arm/12.2.rel1_2023.7/bin/../lib/gcc/arm-none-eabi/12.2.1/thumb/v7e-m+fp/softfp\libc_nano.a(libc_a-memset.o)
                              c:/siliconlabs/simplicitystudio/v5/developer/toolchains/gnu_arm/12.2.rel1_2023.7/bin/../lib/gcc/arm-none-eabi/12.2.1/thumb/v7e-m+fp/softfp/crt0.o (memset)
c:/siliconlabs/simplicitystudio/v5/developer/toolchains/gnu_arm/12.2.rel1_2023.7/bin/../lib/gcc/arm-none-eabi/12.2.1/thumb/v7e-m+fp/softfp\libc_nano.a(libc_a-localeconv.o)
                              c:/siliconlabs/simplicitystudio/v5/developer/toolchains/gnu_arm/12.2.rel1_2023.7/bin/../lib/gcc/arm-none-eabi/12.2.1/thumb/v7e-m+fp/softfp\libc_nano.a(libc_a-nano-vfprintf_float.o) (_localeconv_r)
c:/siliconlabs/simplicitystudio/v5/developer/toolchains/gnu_arm/12.2.rel1_2023.7/bin/../lib/gcc/arm-none-eabi/12.2.1/thumb/v7e-m+fp/softfp\libc_nano.a(libc_a-closer.o)
                              c:/siliconlabs/simplicitystudio/v5/developer/toolchains/gnu_arm/12.2.rel1_2023.7/bin/../lib/gcc/arm-none-eabi/12.2.1/thumb/v7e-m+fp/softfp\libc_nano.a(libc_a-stdio.o) (_close_r)
c:/siliconlabs/simplicitystudio/v5/developer/toolchains/gnu_arm/12.2.rel1_2023.7/bin/../lib/gcc/arm-none-eabi/12.2.1/thumb/v7e-m+fp/softfp\libc_nano.a(libc_a-reent.o)
                              c:/siliconlabs/simplicitystudio/v5/developer/toolchains/gnu_arm/12.2.rel1_2023.7/bin/../lib/gcc/arm-none-eabi/12.2.1/thumb/v7e-m+fp/softfp\libc_nano.a(libc_a-closer.o) (errno)
c:/siliconlabs/simplicitystudio/v5/developer/toolchains/gnu_arm/12.2.rel1_2023.7/bin/../lib/gcc/arm-none-eabi/12.2.1/thumb/v7e-m+fp/softfp\libc_nano.a(libc_a-impure.o)
                              c:/siliconlabs/simplicitystudio/v5/developer/toolchains/gnu_arm/12.2.rel1_2023.7/bin/../lib/gcc/arm-none-eabi/12.2.1/thumb/v7e-m+fp/softfp\libc_nano.a(libc_a-printf.o) (_impure_ptr)
c:/siliconlabs/simplicitystudio/v5/developer/toolchains/gnu_arm/12.2.rel1_2023.7/bin/../lib/gcc/arm-none-eabi/12.2.1/thumb/v7e-m+fp/softfp\libc_nano.a(libc_a-lseekr.o)
                              c:/siliconlabs/simplicitystudio/v5/developer/toolchains/gnu_arm/12.2.rel1_2023.7/bin/../lib/gcc/arm-none-eabi/12.2.1/thumb/v7e-m+fp/softfp\libc_nano.a(libc_a-stdio.o) (_lseek_r)
c:/siliconlabs/simplicitystudio/v5/developer/toolchains/gnu_arm/12.2.rel1_2023.7/bin/../lib/gcc/arm-none-eabi/12.2.1/thumb/v7e-m+fp/softfp\libc_nano.a(libc_a-readr.o)
                              c:/siliconlabs/simplicitystudio/v5/developer/toolchains/gnu_arm/12.2.rel1_2023.7/bin/../lib/gcc/arm-none-eabi/12.2.1/thumb/v7e-m+fp/softfp\libc_nano.a(libc_a-stdio.o) (_read_r)
c:/siliconlabs/simplicitystudio/v5/developer/toolchains/gnu_arm/12.2.rel1_2023.7/bin/../lib/gcc/arm-none-eabi/12.2.1/thumb/v7e-m+fp/softfp\libc_nano.a(libc_a-writer.o)
                              c:/siliconlabs/simplicitystudio/v5/developer/toolchains/gnu_arm/12.2.rel1_2023.7/bin/../lib/gcc/arm-none-eabi/12.2.1/thumb/v7e-m+fp/softfp\libc_nano.a(libc_a-stdio.o) (_write_r)
c:/siliconlabs/simplicitystudio/v5/developer/toolchains/gnu_arm/12.2.rel1_2023.7/bin/../lib/gcc/arm-none-eabi/12.2.1/thumb/v7e-m+fp/softfp\libc_nano.a(libc_a-errno.o)
                              ./wiseconnect3_sdk_3.3.0/components/device/silabs/si91x/mcu/core/common/src/syscalls.o (__errno)
c:/siliconlabs/simplicitystudio/v5/developer/toolchains/gnu_arm/12.2.rel1_2023.7/bin/../lib/gcc/arm-none-eabi/12.2.1/thumb/v7e-m+fp/softfp\libc_nano.a(libc_a-init.o)
                              c:/siliconlabs/simplicitystudio/v5/developer/toolchains/gnu_arm/12.2.rel1_2023.7/bin/../lib/gcc/arm-none-eabi/12.2.1/thumb/v7e-m+fp/softfp/crt0.o (__libc_init_array)
c:/siliconlabs/simplicitystudio/v5/developer/toolchains/gnu_arm/12.2.rel1_2023.7/bin/../lib/gcc/arm-none-eabi/12.2.1/thumb/v7e-m+fp/softfp\libc_nano.a(libc_a-lock.o)
                              c:/siliconlabs/simplicitystudio/v5/developer/toolchains/gnu_arm/12.2.rel1_2023.7/bin/../lib/gcc/arm-none-eabi/12.2.1/thumb/v7e-m+fp/softfp\libc_nano.a(libc_a-findfp.o) (__retarget_lock_init_recursive)
c:/siliconlabs/simplicitystudio/v5/developer/toolchains/gnu_arm/12.2.rel1_2023.7/bin/../lib/gcc/arm-none-eabi/12.2.1/thumb/v7e-m+fp/softfp\libc_nano.a(libc_a-memchr.o)
                              c:/siliconlabs/simplicitystudio/v5/developer/toolchains/gnu_arm/12.2.rel1_2023.7/bin/../lib/gcc/arm-none-eabi/12.2.1/thumb/v7e-m+fp/softfp\libc_nano.a(libc_a-nano-vfprintf_i.o) (memchr)
c:/siliconlabs/simplicitystudio/v5/developer/toolchains/gnu_arm/12.2.rel1_2023.7/bin/../lib/gcc/arm-none-eabi/12.2.1/thumb/v7e-m+fp/softfp\libc_nano.a(libc_a-strlen.o)
                              c:/siliconlabs/simplicitystudio/v5/developer/toolchains/gnu_arm/12.2.rel1_2023.7/bin/../lib/gcc/arm-none-eabi/12.2.1/thumb/v7e-m+fp/softfp\libc_nano.a(libc_a-nano-vfprintf_float.o) (strlen)
c:/siliconlabs/simplicitystudio/v5/developer/toolchains/gnu_arm/12.2.rel1_2023.7/bin/../lib/gcc/arm-none-eabi/12.2.1/thumb/v7e-m+fp/softfp\libc_nano.a(libc_a-dtoa.o)
                              c:/siliconlabs/simplicitystudio/v5/developer/toolchains/gnu_arm/12.2.rel1_2023.7/bin/../lib/gcc/arm-none-eabi/12.2.1/thumb/v7e-m+fp/softfp\libc_nano.a(libc_a-nano-vfprintf_float.o) (_dtoa_r)
c:/siliconlabs/simplicitystudio/v5/developer/toolchains/gnu_arm/12.2.rel1_2023.7/bin/../lib/gcc/arm-none-eabi/12.2.1/thumb/v7e-m+fp/softfp\libc_nano.a(libc_a-freer.o)
                              c:/siliconlabs/simplicitystudio/v5/developer/toolchains/gnu_arm/12.2.rel1_2023.7/bin/../lib/gcc/arm-none-eabi/12.2.1/thumb/v7e-m+fp/softfp\libc_nano.a(libc_a-wsetup.o) (_free_r)
c:/siliconlabs/simplicitystudio/v5/developer/toolchains/gnu_arm/12.2.rel1_2023.7/bin/../lib/gcc/arm-none-eabi/12.2.1/thumb/v7e-m+fp/softfp\libc_nano.a(libc_a-malloc.o)
                              c:/siliconlabs/simplicitystudio/v5/developer/toolchains/gnu_arm/12.2.rel1_2023.7/bin/../lib/gcc/arm-none-eabi/12.2.1/thumb/v7e-m+fp/softfp\libc_nano.a(libc_a-dtoa.o) (malloc)
c:/siliconlabs/simplicitystudio/v5/developer/toolchains/gnu_arm/12.2.rel1_2023.7/bin/../lib/gcc/arm-none-eabi/12.2.1/thumb/v7e-m+fp/softfp\libc_nano.a(libc_a-mallocr.o)
                              c:/siliconlabs/simplicitystudio/v5/developer/toolchains/gnu_arm/12.2.rel1_2023.7/bin/../lib/gcc/arm-none-eabi/12.2.1/thumb/v7e-m+fp/softfp\libc_nano.a(libc_a-findfp.o) (_malloc_r)
c:/siliconlabs/simplicitystudio/v5/developer/toolchains/gnu_arm/12.2.rel1_2023.7/bin/../lib/gcc/arm-none-eabi/12.2.1/thumb/v7e-m+fp/softfp\libc_nano.a(libc_a-mlock.o)
                              c:/siliconlabs/simplicitystudio/v5/developer/toolchains/gnu_arm/12.2.rel1_2023.7/bin/../lib/gcc/arm-none-eabi/12.2.1/thumb/v7e-m+fp/softfp\libc_nano.a(libc_a-freer.o) (__malloc_lock)
c:/siliconlabs/simplicitystudio/v5/developer/toolchains/gnu_arm/12.2.rel1_2023.7/bin/../lib/gcc/arm-none-eabi/12.2.1/thumb/v7e-m+fp/softfp\libc_nano.a(libc_a-mprec.o)
                              c:/siliconlabs/simplicitystudio/v5/developer/toolchains/gnu_arm/12.2.rel1_2023.7/bin/../lib/gcc/arm-none-eabi/12.2.1/thumb/v7e-m+fp/softfp\libc_nano.a(libc_a-dtoa.o) (_Balloc)
c:/siliconlabs/simplicitystudio/v5/developer/toolchains/gnu_arm/12.2.rel1_2023.7/bin/../lib/gcc/arm-none-eabi/12.2.1/thumb/v7e-m+fp/softfp\libc_nano.a(libc_a-nano-vfprintf.o)
                              c:/siliconlabs/simplicitystudio/v5/developer/toolchains/gnu_arm/12.2.rel1_2023.7/bin/../lib/gcc/arm-none-eabi/12.2.1/thumb/v7e-m+fp/softfp\libc_nano.a(libc_a-printf.o) (_vfprintf_r)
c:/siliconlabs/simplicitystudio/v5/developer/toolchains/gnu_arm/12.2.rel1_2023.7/bin/../lib/gcc/arm-none-eabi/12.2.1/thumb/v7e-m+fp/softfp\libc_nano.a(libc_a-fflush.o)
                              c:/siliconlabs/simplicitystudio/v5/developer/toolchains/gnu_arm/12.2.rel1_2023.7/bin/../lib/gcc/arm-none-eabi/12.2.1/thumb/v7e-m+fp/softfp\libc_nano.a(libc_a-findfp.o) (_fflush_r)
c:/siliconlabs/simplicitystudio/v5/developer/toolchains/gnu_arm/12.2.rel1_2023.7/bin/../lib/gcc/arm-none-eabi/12.2.1/thumb/v7e-m+fp/softfp\libc_nano.a(libc_a-fvwrite.o)
                              c:/siliconlabs/simplicitystudio/v5/developer/toolchains/gnu_arm/12.2.rel1_2023.7/bin/../lib/gcc/arm-none-eabi/12.2.1/thumb/v7e-m+fp/softfp\libc_nano.a(libc_a-nano-vfprintf.o) (__sfvwrite_r)
c:/siliconlabs/simplicitystudio/v5/developer/toolchains/gnu_arm/12.2.rel1_2023.7/bin/../lib/gcc/arm-none-eabi/12.2.1/thumb/v7e-m+fp/softfp\libc_nano.a(libc_a-makebuf.o)
                              c:/siliconlabs/simplicitystudio/v5/developer/toolchains/gnu_arm/12.2.rel1_2023.7/bin/../lib/gcc/arm-none-eabi/12.2.1/thumb/v7e-m+fp/softfp\libc_nano.a(libc_a-wsetup.o) (__smakebuf_r)
c:/siliconlabs/simplicitystudio/v5/developer/toolchains/gnu_arm/12.2.rel1_2023.7/bin/../lib/gcc/arm-none-eabi/12.2.1/thumb/v7e-m+fp/softfp\libc_nano.a(libc_a-memmove.o)
                              c:/siliconlabs/simplicitystudio/v5/developer/toolchains/gnu_arm/12.2.rel1_2023.7/bin/../lib/gcc/arm-none-eabi/12.2.1/thumb/v7e-m+fp/softfp\libc_nano.a(libc_a-fvwrite.o) (memmove)
c:/siliconlabs/simplicitystudio/v5/developer/toolchains/gnu_arm/12.2.rel1_2023.7/bin/../lib/gcc/arm-none-eabi/12.2.1/thumb/v7e-m+fp/softfp\libc_nano.a(libc_a-locale.o)
                              c:/siliconlabs/simplicitystudio/v5/developer/toolchains/gnu_arm/12.2.rel1_2023.7/bin/../lib/gcc/arm-none-eabi/12.2.1/thumb/v7e-m+fp/softfp\libc_nano.a(libc_a-localeconv.o) (__global_locale)
c:/siliconlabs/simplicitystudio/v5/developer/toolchains/gnu_arm/12.2.rel1_2023.7/bin/../lib/gcc/arm-none-eabi/12.2.1/thumb/v7e-m+fp/softfp\libc_nano.a(libc_a-fstatr.o)
                              c:/siliconlabs/simplicitystudio/v5/developer/toolchains/gnu_arm/12.2.rel1_2023.7/bin/../lib/gcc/arm-none-eabi/12.2.1/thumb/v7e-m+fp/softfp\libc_nano.a(libc_a-makebuf.o) (_fstat_r)
c:/siliconlabs/simplicitystudio/v5/developer/toolchains/gnu_arm/12.2.rel1_2023.7/bin/../lib/gcc/arm-none-eabi/12.2.1/thumb/v7e-m+fp/softfp\libc_nano.a(libc_a-isattyr.o)
                              c:/siliconlabs/simplicitystudio/v5/developer/toolchains/gnu_arm/12.2.rel1_2023.7/bin/../lib/gcc/arm-none-eabi/12.2.1/thumb/v7e-m+fp/softfp\libc_nano.a(libc_a-makebuf.o) (_isatty_r)
c:/siliconlabs/simplicitystudio/v5/developer/toolchains/gnu_arm/12.2.rel1_2023.7/bin/../lib/gcc/arm-none-eabi/12.2.1/thumb/v7e-m+fp/softfp\libc_nano.a(libc_a-sbrkr.o)
                              c:/siliconlabs/simplicitystudio/v5/developer/toolchains/gnu_arm/12.2.rel1_2023.7/bin/../lib/gcc/arm-none-eabi/12.2.1/thumb/v7e-m+fp/softfp\libc_nano.a(libc_a-mallocr.o) (_sbrk_r)
c:/siliconlabs/simplicitystudio/v5/developer/toolchains/gnu_arm/12.2.rel1_2023.7/bin/../lib/gcc/arm-none-eabi/12.2.1/thumb/v7e-m+fp/softfp\libc_nano.a(libc_a-strcmp.o)
                              c:/siliconlabs/simplicitystudio/v5/developer/toolchains/gnu_arm/12.2.rel1_2023.7/bin/../lib/gcc/arm-none-eabi/12.2.1/thumb/v7e-m+fp/softfp\libc_nano.a(libc_a-locale.o) (strcmp)
c:/siliconlabs/simplicitystudio/v5/developer/toolchains/gnu_arm/12.2.rel1_2023.7/bin/../lib/gcc/arm-none-eabi/12.2.1/thumb/v7e-m+fp/softfp\libc_nano.a(libc_a-memcpy-stub.o)
                              c:/siliconlabs/simplicitystudio/v5/developer/toolchains/gnu_arm/12.2.rel1_2023.7/bin/../lib/gcc/arm-none-eabi/12.2.1/thumb/v7e-m+fp/softfp\libc_nano.a(libc_a-dtoa.o) (memcpy)
c:/siliconlabs/simplicitystudio/v5/developer/toolchains/gnu_arm/12.2.rel1_2023.7/bin/../lib/gcc/arm-none-eabi/12.2.1/thumb/v7e-m+fp/softfp\libc_nano.a(libc_a-assert.o)
                              c:/siliconlabs/simplicitystudio/v5/developer/toolchains/gnu_arm/12.2.rel1_2023.7/bin/../lib/gcc/arm-none-eabi/12.2.1/thumb/v7e-m+fp/softfp\libc_nano.a(libc_a-dtoa.o) (__assert_func)
c:/siliconlabs/simplicitystudio/v5/developer/toolchains/gnu_arm/12.2.rel1_2023.7/bin/../lib/gcc/arm-none-eabi/12.2.1/thumb/v7e-m+fp/softfp\libc_nano.a(libc_a-callocr.o)
                              c:/siliconlabs/simplicitystudio/v5/developer/toolchains/gnu_arm/12.2.rel1_2023.7/bin/../lib/gcc/arm-none-eabi/12.2.1/thumb/v7e-m+fp/softfp\libc_nano.a(libc_a-mprec.o) (_calloc_r)
c:/siliconlabs/simplicitystudio/v5/developer/toolchains/gnu_arm/12.2.rel1_2023.7/bin/../lib/gcc/arm-none-eabi/12.2.1/thumb/v7e-m+fp/softfp\libc_nano.a(libc_a-mbtowc_r.o)
                              c:/siliconlabs/simplicitystudio/v5/developer/toolchains/gnu_arm/12.2.rel1_2023.7/bin/../lib/gcc/arm-none-eabi/12.2.1/thumb/v7e-m+fp/softfp\libc_nano.a(libc_a-locale.o) (__ascii_mbtowc)
c:/siliconlabs/simplicitystudio/v5/developer/toolchains/gnu_arm/12.2.rel1_2023.7/bin/../lib/gcc/arm-none-eabi/12.2.1/thumb/v7e-m+fp/softfp\libc_nano.a(libc_a-reallocr.o)
                              c:/siliconlabs/simplicitystudio/v5/developer/toolchains/gnu_arm/12.2.rel1_2023.7/bin/../lib/gcc/arm-none-eabi/12.2.1/thumb/v7e-m+fp/softfp\libc_nano.a(libc_a-fvwrite.o) (_realloc_r)
c:/siliconlabs/simplicitystudio/v5/developer/toolchains/gnu_arm/12.2.rel1_2023.7/bin/../lib/gcc/arm-none-eabi/12.2.1/thumb/v7e-m+fp/softfp\libc_nano.a(libc_a-wctomb_r.o)
                              c:/siliconlabs/simplicitystudio/v5/developer/toolchains/gnu_arm/12.2.rel1_2023.7/bin/../lib/gcc/arm-none-eabi/12.2.1/thumb/v7e-m+fp/softfp\libc_nano.a(libc_a-locale.o) (__ascii_wctomb)
c:/siliconlabs/simplicitystudio/v5/developer/toolchains/gnu_arm/12.2.rel1_2023.7/bin/../lib/gcc/arm-none-eabi/12.2.1/thumb/v7e-m+fp/softfp\libc_nano.a(libc_a-ctype_.o)
                              c:/siliconlabs/simplicitystudio/v5/developer/toolchains/gnu_arm/12.2.rel1_2023.7/bin/../lib/gcc/arm-none-eabi/12.2.1/thumb/v7e-m+fp/softfp\libc_nano.a(libc_a-locale.o) (_ctype_)
c:/siliconlabs/simplicitystudio/v5/developer/toolchains/gnu_arm/12.2.rel1_2023.7/bin/../lib/gcc/arm-none-eabi/12.2.1/thumb/v7e-m+fp/softfp\libc_nano.a(libc_a-fprintf.o)
                              c:/siliconlabs/simplicitystudio/v5/developer/toolchains/gnu_arm/12.2.rel1_2023.7/bin/../lib/gcc/arm-none-eabi/12.2.1/thumb/v7e-m+fp/softfp\libc_nano.a(libc_a-assert.o) (fiprintf)
c:/siliconlabs/simplicitystudio/v5/developer/toolchains/gnu_arm/12.2.rel1_2023.7/bin/../lib/gcc/arm-none-eabi/12.2.1/thumb/v7e-m+fp/softfp\libc_nano.a(libc_a-abort.o)
                              c:/siliconlabs/simplicitystudio/v5/developer/toolchains/gnu_arm/12.2.rel1_2023.7/bin/../lib/gcc/arm-none-eabi/12.2.1/thumb/v7e-m+fp/softfp\libc_nano.a(libc_a-assert.o) (abort)
c:/siliconlabs/simplicitystudio/v5/developer/toolchains/gnu_arm/12.2.rel1_2023.7/bin/../lib/gcc/arm-none-eabi/12.2.1/thumb/v7e-m+fp/softfp\libc_nano.a(libc_a-msizer.o)
                              c:/siliconlabs/simplicitystudio/v5/developer/toolchains/gnu_arm/12.2.rel1_2023.7/bin/../lib/gcc/arm-none-eabi/12.2.1/thumb/v7e-m+fp/softfp\libc_nano.a(libc_a-reallocr.o) (_malloc_usable_size_r)
c:/siliconlabs/simplicitystudio/v5/developer/toolchains/gnu_arm/12.2.rel1_2023.7/bin/../lib/gcc/arm-none-eabi/12.2.1/thumb/v7e-m+fp/softfp\libc_nano.a(libc_a-signal.o)
                              c:/siliconlabs/simplicitystudio/v5/developer/toolchains/gnu_arm/12.2.rel1_2023.7/bin/../lib/gcc/arm-none-eabi/12.2.1/thumb/v7e-m+fp/softfp\libc_nano.a(libc_a-abort.o) (raise)
c:/siliconlabs/simplicitystudio/v5/developer/toolchains/gnu_arm/12.2.rel1_2023.7/bin/../lib/gcc/arm-none-eabi/12.2.1/thumb/v7e-m+fp/softfp\libc_nano.a(libc_a-signalr.o)
                              c:/siliconlabs/simplicitystudio/v5/developer/toolchains/gnu_arm/12.2.rel1_2023.7/bin/../lib/gcc/arm-none-eabi/12.2.1/thumb/v7e-m+fp/softfp\libc_nano.a(libc_a-signal.o) (_kill_r)
c:/siliconlabs/simplicitystudio/v5/developer/toolchains/gnu_arm/12.2.rel1_2023.7/bin/../lib/gcc/arm-none-eabi/12.2.1/thumb/v7e-m+fp/softfp\libgcc.a(_arm_cmpdf2.o)
                              c:/siliconlabs/simplicitystudio/v5/developer/toolchains/gnu_arm/12.2.rel1_2023.7/bin/../lib/gcc/arm-none-eabi/12.2.1/thumb/v7e-m+fp/softfp\libc_nano.a(libc_a-nano-vfprintf_float.o) (__aeabi_dcmpeq)
c:/siliconlabs/simplicitystudio/v5/developer/toolchains/gnu_arm/12.2.rel1_2023.7/bin/../lib/gcc/arm-none-eabi/12.2.1/thumb/v7e-m+fp/softfp\libgcc.a(_arm_unorddf2.o)
                              c:/siliconlabs/simplicitystudio/v5/developer/toolchains/gnu_arm/12.2.rel1_2023.7/bin/../lib/gcc/arm-none-eabi/12.2.1/thumb/v7e-m+fp/softfp\libc_nano.a(libc_a-nano-vfprintf_float.o) (__aeabi_dcmpun)
c:/siliconlabs/simplicitystudio/v5/developer/toolchains/gnu_arm/12.2.rel1_2023.7/bin/../lib/gcc/arm-none-eabi/12.2.1/thumb/v7e-m+fp/softfp\libgcc.a(_arm_fixdfsi.o)
                              c:/siliconlabs/simplicitystudio/v5/developer/toolchains/gnu_arm/12.2.rel1_2023.7/bin/../lib/gcc/arm-none-eabi/12.2.1/thumb/v7e-m+fp/softfp\libc_nano.a(libc_a-dtoa.o) (__aeabi_d2iz)

Discarded input sections

 .text          0x00000000        0x0 c:/siliconlabs/simplicitystudio/v5/developer/toolchains/gnu_arm/12.2.rel1_2023.7/bin/../lib/gcc/arm-none-eabi/12.2.1/thumb/v7e-m+fp/softfp/crti.o
 .data          0x00000000        0x0 c:/siliconlabs/simplicitystudio/v5/developer/toolchains/gnu_arm/12.2.rel1_2023.7/bin/../lib/gcc/arm-none-eabi/12.2.1/thumb/v7e-m+fp/softfp/crti.o
 .bss           0x00000000        0x0 c:/siliconlabs/simplicitystudio/v5/developer/toolchains/gnu_arm/12.2.rel1_2023.7/bin/../lib/gcc/arm-none-eabi/12.2.1/thumb/v7e-m+fp/softfp/crti.o
 .text          0x00000000        0x0 c:/siliconlabs/simplicitystudio/v5/developer/toolchains/gnu_arm/12.2.rel1_2023.7/bin/../lib/gcc/arm-none-eabi/12.2.1/thumb/v7e-m+fp/softfp/crtbegin.o
 .data          0x00000000        0x0 c:/siliconlabs/simplicitystudio/v5/developer/toolchains/gnu_arm/12.2.rel1_2023.7/bin/../lib/gcc/arm-none-eabi/12.2.1/thumb/v7e-m+fp/softfp/crtbegin.o
 .bss           0x00000000        0x0 c:/siliconlabs/simplicitystudio/v5/developer/toolchains/gnu_arm/12.2.rel1_2023.7/bin/../lib/gcc/arm-none-eabi/12.2.1/thumb/v7e-m+fp/softfp/crtbegin.o
 .rodata.all_implied_fbits
                0x00000000       0x24 c:/siliconlabs/simplicitystudio/v5/developer/toolchains/gnu_arm/12.2.rel1_2023.7/bin/../lib/gcc/arm-none-eabi/12.2.1/thumb/v7e-m+fp/softfp/crtbegin.o
 .data.__dso_handle
                0x00000000        0x4 c:/siliconlabs/simplicitystudio/v5/developer/toolchains/gnu_arm/12.2.rel1_2023.7/bin/../lib/gcc/arm-none-eabi/12.2.1/thumb/v7e-m+fp/softfp/crtbegin.o
 .text          0x00000000       0x7c c:/siliconlabs/simplicitystudio/v5/developer/toolchains/gnu_arm/12.2.rel1_2023.7/bin/../lib/gcc/arm-none-eabi/12.2.1/thumb/v7e-m+fp/softfp/crt0.o
 .data          0x00000000        0x0 c:/siliconlabs/simplicitystudio/v5/developer/toolchains/gnu_arm/12.2.rel1_2023.7/bin/../lib/gcc/arm-none-eabi/12.2.1/thumb/v7e-m+fp/softfp/crt0.o
 .bss           0x00000000        0x0 c:/siliconlabs/simplicitystudio/v5/developer/toolchains/gnu_arm/12.2.rel1_2023.7/bin/../lib/gcc/arm-none-eabi/12.2.1/thumb/v7e-m+fp/softfp/crt0.o
 .ARM.extab     0x00000000        0x0 c:/siliconlabs/simplicitystudio/v5/developer/toolchains/gnu_arm/12.2.rel1_2023.7/bin/../lib/gcc/arm-none-eabi/12.2.1/thumb/v7e-m+fp/softfp/crt0.o
 .ARM.exidx     0x00000000       0x10 c:/siliconlabs/simplicitystudio/v5/developer/toolchains/gnu_arm/12.2.rel1_2023.7/bin/../lib/gcc/arm-none-eabi/12.2.1/thumb/v7e-m+fp/softfp/crt0.o
 .debug_line_str
                0x00000000       0xe5 c:/siliconlabs/simplicitystudio/v5/developer/toolchains/gnu_arm/12.2.rel1_2023.7/bin/../lib/gcc/arm-none-eabi/12.2.1/thumb/v7e-m+fp/softfp/crt0.o
 .ARM.attributes
                0x00000000       0x20 c:/siliconlabs/simplicitystudio/v5/developer/toolchains/gnu_arm/12.2.rel1_2023.7/bin/../lib/gcc/arm-none-eabi/12.2.1/thumb/v7e-m+fp/softfp/crt0.o
 .text          0x00000000        0x0 ./ampak_gspi_util.o
 .data          0x00000000        0x0 ./ampak_gspi_util.o
 .bss           0x00000000        0x0 ./ampak_gspi_util.o
 .data.sl_timer_clk_handle
                0x00000000        0x4 ./ampak_gspi_util.o
 .text          0x00000000        0x0 ./app.o
 .data          0x00000000        0x0 ./app.o
 .bss           0x00000000        0x0 ./app.o
 .text          0x00000000        0x0 ./main.o
 .data          0x00000000        0x0 ./main.o
 .bss           0x00000000        0x0 ./main.o
 .text          0x00000000        0x0 ./autogen/sl_event_handler.o
 .data          0x00000000        0x0 ./autogen/sl_event_handler.o
 .bss           0x00000000        0x0 ./autogen/sl_event_handler.o
 .text          0x00000000        0x0 ./autogen/sl_ulp_timer_init.o
 .data          0x00000000        0x0 ./autogen/sl_ulp_timer_init.o
 .bss           0x00000000        0x0 ./autogen/sl_ulp_timer_init.o
 .data.sl_timer_handle_timer0
                0x00000000        0xc ./autogen/sl_ulp_timer_init.o
 .debug_info    0x00000000      0x196 ./autogen/sl_ulp_timer_init.o
 .debug_abbrev  0x00000000       0x93 ./autogen/sl_ulp_timer_init.o
 .debug_aranges
                0x00000000       0x18 ./autogen/sl_ulp_timer_init.o
 .debug_line    0x00000000      0x293 ./autogen/sl_ulp_timer_init.o
 .debug_str     0x00000000      0x321 ./autogen/sl_ulp_timer_init.o
 .comment       0x00000000       0x46 ./autogen/sl_ulp_timer_init.o
 .ARM.attributes
                0x00000000       0x32 ./autogen/sl_ulp_timer_init.o
 .text          0x00000000        0x0 ./simplicity_sdk_2024.6.0/platform/common/src/sl_assert.o
 .data          0x00000000        0x0 ./simplicity_sdk_2024.6.0/platform/common/src/sl_assert.o
 .bss           0x00000000        0x0 ./simplicity_sdk_2024.6.0/platform/common/src/sl_assert.o
 .debug_line    0x00000000        0x0 ./simplicity_sdk_2024.6.0/platform/common/src/sl_assert.o
 .debug_str     0x00000000      0x16b ./simplicity_sdk_2024.6.0/platform/common/src/sl_assert.o
 .comment       0x00000000       0x46 ./simplicity_sdk_2024.6.0/platform/common/src/sl_assert.o
 .ARM.attributes
                0x00000000       0x32 ./simplicity_sdk_2024.6.0/platform/common/src/sl_assert.o
 .text          0x00000000        0x0 ./simplicity_sdk_2024.6.0/platform/service/system/src/sl_system_init.o
 .data          0x00000000        0x0 ./simplicity_sdk_2024.6.0/platform/service/system/src/sl_system_init.o
 .bss           0x00000000        0x0 ./simplicity_sdk_2024.6.0/platform/service/system/src/sl_system_init.o
 .text          0x00000000        0x0 ./simplicity_sdk_2024.6.0/platform/service/system/src/sl_system_process_action.o
 .data          0x00000000        0x0 ./simplicity_sdk_2024.6.0/platform/service/system/src/sl_system_process_action.o
 .bss           0x00000000        0x0 ./simplicity_sdk_2024.6.0/platform/service/system/src/sl_system_process_action.o
 .text          0x00000000        0x0 ./wiseconnect3_sdk_3.3.0/components/board/silabs/src/rsi_board.o
 .data          0x00000000        0x0 ./wiseconnect3_sdk_3.3.0/components/board/silabs/src/rsi_board.o
 .bss           0x00000000        0x0 ./wiseconnect3_sdk_3.3.0/components/board/silabs/src/rsi_board.o
 .text          0x00000000        0x0 ./wiseconnect3_sdk_3.3.0/components/device/silabs/si91x/mcu/core/chip/src/iPMU_prog/iPMU_dotc/ipmu_apis.o
 .data          0x00000000        0x0 ./wiseconnect3_sdk_3.3.0/components/device/silabs/si91x/mcu/core/chip/src/iPMU_prog/iPMU_dotc/ipmu_apis.o
 .bss           0x00000000        0x0 ./wiseconnect3_sdk_3.3.0/components/device/silabs/si91x/mcu/core/chip/src/iPMU_prog/iPMU_dotc/ipmu_apis.o
 .text.update_ipmu_data
                0x00000000       0x38 ./wiseconnect3_sdk_3.3.0/components/device/silabs/si91x/mcu/core/chip/src/iPMU_prog/iPMU_dotc/ipmu_apis.o
 .text.set_scdc
                0x00000000       0x28 ./wiseconnect3_sdk_3.3.0/components/device/silabs/si91x/mcu/core/chip/src/iPMU_prog/iPMU_dotc/ipmu_apis.o
 .text.shut_down_non_wireless_mode_pds
                0x00000000       0x54 ./wiseconnect3_sdk_3.3.0/components/device/silabs/si91x/mcu/core/chip/src/iPMU_prog/iPMU_dotc/ipmu_apis.o
 .text.configure_uulp_gpio_to_1p8v
                0x00000000       0x18 ./wiseconnect3_sdk_3.3.0/components/device/silabs/si91x/mcu/core/chip/src/iPMU_prog/iPMU_dotc/ipmu_apis.o
 .text          0x00000000        0x0 ./wiseconnect3_sdk_3.3.0/components/device/silabs/si91x/mcu/core/chip/src/iPMU_prog/iPMU_dotc/rsi_system_config_917.o
 .data          0x00000000        0x0 ./wiseconnect3_sdk_3.3.0/components/device/silabs/si91x/mcu/core/chip/src/iPMU_prog/iPMU_dotc/rsi_system_config_917.o
 .bss           0x00000000        0x0 ./wiseconnect3_sdk_3.3.0/components/device/silabs/si91x/mcu/core/chip/src/iPMU_prog/iPMU_dotc/rsi_system_config_917.o
 .data.dblr_input_sel
                0x00000000        0xc ./wiseconnect3_sdk_3.3.0/components/device/silabs/si91x/mcu/core/chip/src/iPMU_prog/iPMU_dotc/rsi_system_config_917.o
 .data.blackout_disable
                0x00000000        0xc ./wiseconnect3_sdk_3.3.0/components/device/silabs/si91x/mcu/core/chip/src/iPMU_prog/iPMU_dotc/rsi_system_config_917.o
 .data.blackout_enable
                0x00000000        0xc ./wiseconnect3_sdk_3.3.0/components/device/silabs/si91x/mcu/core/chip/src/iPMU_prog/iPMU_dotc/rsi_system_config_917.o
 .data.scdc_freqtrim_efuse
                0x00000000        0xc ./wiseconnect3_sdk_3.3.0/components/device/silabs/si91x/mcu/core/chip/src/iPMU_prog/iPMU_dotc/rsi_system_config_917.o
 .data.scdc_freq_efuse
                0x00000000        0xc ./wiseconnect3_sdk_3.3.0/components/device/silabs/si91x/mcu/core/chip/src/iPMU_prog/iPMU_dotc/rsi_system_config_917.o
 .data.hpldo_volt_trim_bump_efuse
                0x00000000        0xc ./wiseconnect3_sdk_3.3.0/components/device/silabs/si91x/mcu/core/chip/src/iPMU_prog/iPMU_dotc/rsi_system_config_917.o
 .data.scdc_volt_trim_bump_efuse
                0x00000000        0xc ./wiseconnect3_sdk_3.3.0/components/device/silabs/si91x/mcu/core/chip/src/iPMU_prog/iPMU_dotc/rsi_system_config_917.o
 .data.retnHP_volt_trim_efuse
                0x00000000        0xc ./wiseconnect3_sdk_3.3.0/components/device/silabs/si91x/mcu/core/chip/src/iPMU_prog/iPMU_dotc/rsi_system_config_917.o
 .data.bjt_tempsense_config
                0x00000000        0xc ./wiseconnect3_sdk_3.3.0/components/device/silabs/si91x/mcu/core/chip/src/iPMU_prog/iPMU_dotc/rsi_system_config_917.o
 .data.ldoflash_op_ctrl
                0x00000000        0xc ./wiseconnect3_sdk_3.3.0/components/device/silabs/si91x/mcu/core/chip/src/iPMU_prog/iPMU_dotc/rsi_system_config_917.o
 .data.ldosoc_op_ctrl
                0x00000000        0xc ./wiseconnect3_sdk_3.3.0/components/device/silabs/si91x/mcu/core/chip/src/iPMU_prog/iPMU_dotc/rsi_system_config_917.o
 .data.buck_op_ctrl
                0x00000000        0xc ./wiseconnect3_sdk_3.3.0/components/device/silabs/si91x/mcu/core/chip/src/iPMU_prog/iPMU_dotc/rsi_system_config_917.o
 .data.bod_cmp_hyst
                0x00000000        0xc ./wiseconnect3_sdk_3.3.0/components/device/silabs/si91x/mcu/core/chip/src/iPMU_prog/iPMU_dotc/rsi_system_config_917.o
 .data.button_wakeup_thresh
                0x00000000        0xc ./wiseconnect3_sdk_3.3.0/components/device/silabs/si91x/mcu/core/chip/src/iPMU_prog/iPMU_dotc/rsi_system_config_917.o
 .data.xtal2_khz_fast_start_disable
                0x00000000        0xc ./wiseconnect3_sdk_3.3.0/components/device/silabs/si91x/mcu/core/chip/src/iPMU_prog/iPMU_dotc/rsi_system_config_917.o
 .data.xtal2_khz_fast_start_en
                0x00000000        0xc ./wiseconnect3_sdk_3.3.0/components/device/silabs/si91x/mcu/core/chip/src/iPMU_prog/iPMU_dotc/rsi_system_config_917.o
 .data.xtal1_khz_fast_start_disable
                0x00000000        0xc ./wiseconnect3_sdk_3.3.0/components/device/silabs/si91x/mcu/core/chip/src/iPMU_prog/iPMU_dotc/rsi_system_config_917.o
 .data.xtal1_khz_fast_start_en
                0x00000000        0xc ./wiseconnect3_sdk_3.3.0/components/device/silabs/si91x/mcu/core/chip/src/iPMU_prog/iPMU_dotc/rsi_system_config_917.o
 .data.ipmu_bod_clks_common_config2
                0x00000000        0xc ./wiseconnect3_sdk_3.3.0/components/device/silabs/si91x/mcu/core/chip/src/iPMU_prog/iPMU_dotc/rsi_system_config_917.o
 .data.ipmu_bod_clks_common_config1
                0x00000000        0xc ./wiseconnect3_sdk_3.3.0/components/device/silabs/si91x/mcu/core/chip/src/iPMU_prog/iPMU_dotc/rsi_system_config_917.o
 .data.ana_perif_ptat_common_config2
                0x00000000        0xc ./wiseconnect3_sdk_3.3.0/components/device/silabs/si91x/mcu/core/chip/src/iPMU_prog/iPMU_dotc/rsi_system_config_917.o
 .data.ana_perif_ptat_common_config1
                0x00000000        0xc ./wiseconnect3_sdk_3.3.0/components/device/silabs/si91x/mcu/core/chip/src/iPMU_prog/iPMU_dotc/rsi_system_config_917.o
 .data.bg_sleep_time
                0x00000000       0x14 ./wiseconnect3_sdk_3.3.0/components/device/silabs/si91x/mcu/core/chip/src/iPMU_prog/iPMU_dotc/rsi_system_config_917.o
 .data.ref_sel_pmu
                0x00000000        0xc ./wiseconnect3_sdk_3.3.0/components/device/silabs/si91x/mcu/core/chip/src/iPMU_prog/iPMU_dotc/rsi_system_config_917.o
 .data.poc_bias_current_11
                0x00000000        0xc ./wiseconnect3_sdk_3.3.0/components/device/silabs/si91x/mcu/core/chip/src/iPMU_prog/iPMU_dotc/rsi_system_config_917.o
 .data.poc_bias_current
                0x00000000        0xc ./wiseconnect3_sdk_3.3.0/components/device/silabs/si91x/mcu/core/chip/src/iPMU_prog/iPMU_dotc/rsi_system_config_917.o
 .data.retn_ldo_hpmode
                0x00000000       0x14 ./wiseconnect3_sdk_3.3.0/components/device/silabs/si91x/mcu/core/chip/src/iPMU_prog/iPMU_dotc/rsi_system_config_917.o
 .data.retn_ldo_0p75
                0x00000000        0xc ./wiseconnect3_sdk_3.3.0/components/device/silabs/si91x/mcu/core/chip/src/iPMU_prog/iPMU_dotc/rsi_system_config_917.o
 .data.retn_ldo_voltsel
                0x00000000        0xc ./wiseconnect3_sdk_3.3.0/components/device/silabs/si91x/mcu/core/chip/src/iPMU_prog/iPMU_dotc/rsi_system_config_917.o
 .data.SCDC_tran
                0x00000000       0x1c ./wiseconnect3_sdk_3.3.0/components/device/silabs/si91x/mcu/core/chip/src/iPMU_prog/iPMU_dotc/rsi_system_config_917.o
 .data.hp_ldo_voltsel
                0x00000000       0x14 ./wiseconnect3_sdk_3.3.0/components/device/silabs/si91x/mcu/core/chip/src/iPMU_prog/iPMU_dotc/rsi_system_config_917.o
 .data.scdc_volt_sel2
                0x00000000       0x14 ./wiseconnect3_sdk_3.3.0/components/device/silabs/si91x/mcu/core/chip/src/iPMU_prog/iPMU_dotc/rsi_system_config_917.o
 .data.scdc_volt_sel1
                0x00000000       0x14 ./wiseconnect3_sdk_3.3.0/components/device/silabs/si91x/mcu/core/chip/src/iPMU_prog/iPMU_dotc/rsi_system_config_917.o
 .data.LDOSOC_BYPASS
                0x00000000       0x14 ./wiseconnect3_sdk_3.3.0/components/device/silabs/si91x/mcu/core/chip/src/iPMU_prog/iPMU_dotc/rsi_system_config_917.o
 .data.ultrasleep_less_than_2V
                0x00000000       0x14 ./wiseconnect3_sdk_3.3.0/components/device/silabs/si91x/mcu/core/chip/src/iPMU_prog/iPMU_dotc/rsi_system_config_917.o
 .data.pmu_socldo_1p0
                0x00000000        0xc ./wiseconnect3_sdk_3.3.0/components/device/silabs/si91x/mcu/core/chip/src/iPMU_prog/iPMU_dotc/rsi_system_config_917.o
 .data.pmu_socldo_0p95
                0x00000000        0xc ./wiseconnect3_sdk_3.3.0/components/device/silabs/si91x/mcu/core/chip/src/iPMU_prog/iPMU_dotc/rsi_system_config_917.o
 .data.pmu_HP_config
                0x00000000       0x2c ./wiseconnect3_sdk_3.3.0/components/device/silabs/si91x/mcu/core/chip/src/iPMU_prog/iPMU_dotc/rsi_system_config_917.o
 .data.pmu_LP_config
                0x00000000       0x34 ./wiseconnect3_sdk_3.3.0/components/device/silabs/si91x/mcu/core/chip/src/iPMU_prog/iPMU_dotc/rsi_system_config_917.o
 .data.buck_op_1p2
                0x00000000        0xc ./wiseconnect3_sdk_3.3.0/components/device/silabs/si91x/mcu/core/chip/src/iPMU_prog/iPMU_dotc/rsi_system_config_917.o
 .data.buck_op_1p35
                0x00000000        0xc ./wiseconnect3_sdk_3.3.0/components/device/silabs/si91x/mcu/core/chip/src/iPMU_prog/iPMU_dotc/rsi_system_config_917.o
 .data.pmu_pwm_mode
                0x00000000       0x14 ./wiseconnect3_sdk_3.3.0/components/device/silabs/si91x/mcu/core/chip/src/iPMU_prog/iPMU_dotc/rsi_system_config_917.o
 .data.pmu_pfm_mode
                0x00000000       0x14 ./wiseconnect3_sdk_3.3.0/components/device/silabs/si91x/mcu/core/chip/src/iPMU_prog/iPMU_dotc/rsi_system_config_917.o
 .text          0x00000000        0x0 ./wiseconnect3_sdk_3.3.0/components/device/silabs/si91x/mcu/core/chip/src/rsi_deepsleep_soc.o
 .data          0x00000000        0x0 ./wiseconnect3_sdk_3.3.0/components/device/silabs/si91x/mcu/core/chip/src/rsi_deepsleep_soc.o
 .bss           0x00000000        0x0 ./wiseconnect3_sdk_3.3.0/components/device/silabs/si91x/mcu/core/chip/src/rsi_deepsleep_soc.o
 .text.RSI_Save_Context
                0x00000000       0x28 ./wiseconnect3_sdk_3.3.0/components/device/silabs/si91x/mcu/core/chip/src/rsi_deepsleep_soc.o
 .text.RSI_PS_SaveCpuContext
                0x00000000       0x34 ./wiseconnect3_sdk_3.3.0/components/device/silabs/si91x/mcu/core/chip/src/rsi_deepsleep_soc.o
 .text.RSI_Set_Cntrls_To_TA
                0x00000000       0x10 ./wiseconnect3_sdk_3.3.0/components/device/silabs/si91x/mcu/core/chip/src/rsi_deepsleep_soc.o
 .text.RSI_PS_EnterDeepSleep
                0x00000000      0x520 ./wiseconnect3_sdk_3.3.0/components/device/silabs/si91x/mcu/core/chip/src/rsi_deepsleep_soc.o
 .bss.sl_magic_word_value
                0x00000000        0x4 ./wiseconnect3_sdk_3.3.0/components/device/silabs/si91x/mcu/core/chip/src/rsi_deepsleep_soc.o
 .bss.control_reg_val
                0x00000000        0x4 ./wiseconnect3_sdk_3.3.0/components/device/silabs/si91x/mcu/core/chip/src/rsi_deepsleep_soc.o
 .bss.psp_value
                0x00000000        0x4 ./wiseconnect3_sdk_3.3.0/components/device/silabs/si91x/mcu/core/chip/src/rsi_deepsleep_soc.o
 .bss.msp_value
                0x00000000        0x4 ./wiseconnect3_sdk_3.3.0/components/device/silabs/si91x/mcu/core/chip/src/rsi_deepsleep_soc.o
 .bss.scs_shp_reg
                0x00000000        0xc ./wiseconnect3_sdk_3.3.0/components/device/silabs/si91x/mcu/core/chip/src/rsi_deepsleep_soc.o
 .bss.nvic_ip_reg
                0x00000000       0xf0 ./wiseconnect3_sdk_3.3.0/components/device/silabs/si91x/mcu/core/chip/src/rsi_deepsleep_soc.o
 .bss.nvic_enable
                0x00000000       0x10 ./wiseconnect3_sdk_3.3.0/components/device/silabs/si91x/mcu/core/chip/src/rsi_deepsleep_soc.o
 .text          0x00000000        0x0 ./wiseconnect3_sdk_3.3.0/components/device/silabs/si91x/mcu/core/chip/src/rsi_ps_ram_func.o
 .data          0x00000000        0x0 ./wiseconnect3_sdk_3.3.0/components/device/silabs/si91x/mcu/core/chip/src/rsi_ps_ram_func.o
 .bss           0x00000000        0x0 ./wiseconnect3_sdk_3.3.0/components/device/silabs/si91x/mcu/core/chip/src/rsi_ps_ram_func.o
 .text.Init_QspiStc
                0x00000000       0x64 ./wiseconnect3_sdk_3.3.0/components/device/silabs/si91x/mcu/core/chip/src/rsi_ps_ram_func.o
 .text.RSI_PS_Restore
                0x00000000        0x4 ./wiseconnect3_sdk_3.3.0/components/device/silabs/si91x/mcu/core/chip/src/rsi_ps_ram_func.o
 .text.GetQspiConfig
                0x00000000       0x40 ./wiseconnect3_sdk_3.3.0/components/device/silabs/si91x/mcu/core/chip/src/rsi_ps_ram_func.o
 .text.RSI_FLASH_Initialize
                0x00000000       0x28 ./wiseconnect3_sdk_3.3.0/components/device/silabs/si91x/mcu/core/chip/src/rsi_ps_ram_func.o
 .bss.spi_configs_giga
                0x00000000       0x1c ./wiseconnect3_sdk_3.3.0/components/device/silabs/si91x/mcu/core/chip/src/rsi_ps_ram_func.o
 .debug_info    0x00000000    0x12f0a ./wiseconnect3_sdk_3.3.0/components/device/silabs/si91x/mcu/core/chip/src/rsi_ps_ram_func.o
 .debug_abbrev  0x00000000      0x369 ./wiseconnect3_sdk_3.3.0/components/device/silabs/si91x/mcu/core/chip/src/rsi_ps_ram_func.o
 .debug_loc     0x00000000       0x8a ./wiseconnect3_sdk_3.3.0/components/device/silabs/si91x/mcu/core/chip/src/rsi_ps_ram_func.o
 .debug_aranges
                0x00000000       0x38 ./wiseconnect3_sdk_3.3.0/components/device/silabs/si91x/mcu/core/chip/src/rsi_ps_ram_func.o
 .debug_ranges  0x00000000       0x28 ./wiseconnect3_sdk_3.3.0/components/device/silabs/si91x/mcu/core/chip/src/rsi_ps_ram_func.o
 .debug_line    0x00000000      0x8db ./wiseconnect3_sdk_3.3.0/components/device/silabs/si91x/mcu/core/chip/src/rsi_ps_ram_func.o
 .debug_str     0x00000000     0xced7 ./wiseconnect3_sdk_3.3.0/components/device/silabs/si91x/mcu/core/chip/src/rsi_ps_ram_func.o
 .comment       0x00000000       0x46 ./wiseconnect3_sdk_3.3.0/components/device/silabs/si91x/mcu/core/chip/src/rsi_ps_ram_func.o
 .debug_frame   0x00000000       0x68 ./wiseconnect3_sdk_3.3.0/components/device/silabs/si91x/mcu/core/chip/src/rsi_ps_ram_func.o
 .ARM.attributes
                0x00000000       0x32 ./wiseconnect3_sdk_3.3.0/components/device/silabs/si91x/mcu/core/chip/src/rsi_ps_ram_func.o
 .text          0x00000000        0x0 ./wiseconnect3_sdk_3.3.0/components/device/silabs/si91x/mcu/core/chip/src/startup_si91x.o
 .data          0x00000000        0x0 ./wiseconnect3_sdk_3.3.0/components/device/silabs/si91x/mcu/core/chip/src/startup_si91x.o
 .bss           0x00000000        0x0 ./wiseconnect3_sdk_3.3.0/components/device/silabs/si91x/mcu/core/chip/src/startup_si91x.o
 .text          0x00000000        0x0 ./wiseconnect3_sdk_3.3.0/components/device/silabs/si91x/mcu/core/chip/src/system_si91x.o
 .data          0x00000000        0x0 ./wiseconnect3_sdk_3.3.0/components/device/silabs/si91x/mcu/core/chip/src/system_si91x.o
 .bss           0x00000000        0x0 ./wiseconnect3_sdk_3.3.0/components/device/silabs/si91x/mcu/core/chip/src/system_si91x.o
 .bss.npssIntrState
                0x00000000        0x4 ./wiseconnect3_sdk_3.3.0/components/device/silabs/si91x/mcu/core/chip/src/system_si91x.o
 .text          0x00000000        0x0 ./wiseconnect3_sdk_3.3.0/components/device/silabs/si91x/mcu/core/common/src/rsi_debug.o
 .data          0x00000000        0x0 ./wiseconnect3_sdk_3.3.0/components/device/silabs/si91x/mcu/core/common/src/rsi_debug.o
 .bss           0x00000000        0x0 ./wiseconnect3_sdk_3.3.0/components/device/silabs/si91x/mcu/core/common/src/rsi_debug.o
 .text.Board_UARTPutSTR
                0x00000000       0x2c ./wiseconnect3_sdk_3.3.0/components/device/silabs/si91x/mcu/core/common/src/rsi_debug.o
 .text.__readc  0x00000000        0x8 ./wiseconnect3_sdk_3.3.0/components/device/silabs/si91x/mcu/core/common/src/rsi_debug.o
 .text.__write  0x00000000       0x1a ./wiseconnect3_sdk_3.3.0/components/device/silabs/si91x/mcu/core/common/src/rsi_debug.o
 .bss.drv_ulp_capabilities
                0x00000000        0x4 ./wiseconnect3_sdk_3.3.0/components/device/silabs/si91x/mcu/core/common/src/rsi_debug.o
 .text          0x00000000        0x0 ./wiseconnect3_sdk_3.3.0/components/device/silabs/si91x/mcu/core/common/src/sl_si91x_stack_object_declare.o
 .data          0x00000000        0x0 ./wiseconnect3_sdk_3.3.0/components/device/silabs/si91x/mcu/core/common/src/sl_si91x_stack_object_declare.o
 .bss           0x00000000        0x0 ./wiseconnect3_sdk_3.3.0/components/device/silabs/si91x/mcu/core/common/src/sl_si91x_stack_object_declare.o
 .text          0x00000000        0x0 ./wiseconnect3_sdk_3.3.0/components/device/silabs/si91x/mcu/core/common/src/syscalls.o
 .data          0x00000000        0x0 ./wiseconnect3_sdk_3.3.0/components/device/silabs/si91x/mcu/core/common/src/syscalls.o
 .bss           0x00000000        0x0 ./wiseconnect3_sdk_3.3.0/components/device/silabs/si91x/mcu/core/common/src/syscalls.o
 .text.initialise_monitor_handles
                0x00000000        0x2 ./wiseconnect3_sdk_3.3.0/components/device/silabs/si91x/mcu/core/common/src/syscalls.o
 .text._open    0x00000000        0xa ./wiseconnect3_sdk_3.3.0/components/device/silabs/si91x/mcu/core/common/src/syscalls.o
 .text._wait    0x00000000       0x10 ./wiseconnect3_sdk_3.3.0/components/device/silabs/si91x/mcu/core/common/src/syscalls.o
 .text._unlink  0x00000000       0x10 ./wiseconnect3_sdk_3.3.0/components/device/silabs/si91x/mcu/core/common/src/syscalls.o
 .text._times   0x00000000        0x6 ./wiseconnect3_sdk_3.3.0/components/device/silabs/si91x/mcu/core/common/src/syscalls.o
 .text._stat    0x00000000        0xa ./wiseconnect3_sdk_3.3.0/components/device/silabs/si91x/mcu/core/common/src/syscalls.o
 .text._link    0x00000000       0x10 ./wiseconnect3_sdk_3.3.0/components/device/silabs/si91x/mcu/core/common/src/syscalls.o
 .text._fork    0x00000000       0x10 ./wiseconnect3_sdk_3.3.0/components/device/silabs/si91x/mcu/core/common/src/syscalls.o
 .text._execve  0x00000000       0x10 ./wiseconnect3_sdk_3.3.0/components/device/silabs/si91x/mcu/core/common/src/syscalls.o
 .text._putchar
                0x00000000        0x4 ./wiseconnect3_sdk_3.3.0/components/device/silabs/si91x/mcu/core/common/src/syscalls.o
 .data.environ  0x00000000        0x4 ./wiseconnect3_sdk_3.3.0/components/device/silabs/si91x/mcu/core/common/src/syscalls.o
 .bss.__env     0x00000000        0x4 ./wiseconnect3_sdk_3.3.0/components/device/silabs/si91x/mcu/core/common/src/syscalls.o
 .bss.sp        0x00000000        0x4 ./wiseconnect3_sdk_3.3.0/components/device/silabs/si91x/mcu/core/common/src/syscalls.o
 .text          0x00000000        0x0 ./wiseconnect3_sdk_3.3.0/components/device/silabs/si91x/mcu/core/config/src/rsi_nvic_priorities_config.o
 .data          0x00000000        0x0 ./wiseconnect3_sdk_3.3.0/components/device/silabs/si91x/mcu/core/config/src/rsi_nvic_priorities_config.o
 .bss           0x00000000        0x0 ./wiseconnect3_sdk_3.3.0/components/device/silabs/si91x/mcu/core/config/src/rsi_nvic_priorities_config.o
 .debug_info    0x00000000       0x80 ./wiseconnect3_sdk_3.3.0/components/device/silabs/si91x/mcu/core/config/src/rsi_nvic_priorities_config.o
 .debug_abbrev  0x00000000       0x26 ./wiseconnect3_sdk_3.3.0/components/device/silabs/si91x/mcu/core/config/src/rsi_nvic_priorities_config.o
 .debug_aranges
                0x00000000       0x18 ./wiseconnect3_sdk_3.3.0/components/device/silabs/si91x/mcu/core/config/src/rsi_nvic_priorities_config.o
 .debug_line    0x00000000       0xbc ./wiseconnect3_sdk_3.3.0/components/device/silabs/si91x/mcu/core/config/src/rsi_nvic_priorities_config.o
 .debug_str     0x00000000      0x253 ./wiseconnect3_sdk_3.3.0/components/device/silabs/si91x/mcu/core/config/src/rsi_nvic_priorities_config.o
 .comment       0x00000000       0x46 ./wiseconnect3_sdk_3.3.0/components/device/silabs/si91x/mcu/core/config/src/rsi_nvic_priorities_config.o
 .ARM.attributes
                0x00000000       0x32 ./wiseconnect3_sdk_3.3.0/components/device/silabs/si91x/mcu/core/config/src/rsi_nvic_priorities_config.o
 .text          0x00000000        0x0 ./wiseconnect3_sdk_3.3.0/components/device/silabs/si91x/mcu/drivers/cmsis_driver/GSPI.o
 .data          0x00000000        0x0 ./wiseconnect3_sdk_3.3.0/components/device/silabs/si91x/mcu/drivers/cmsis_driver/GSPI.o
 .bss           0x00000000        0x0 ./wiseconnect3_sdk_3.3.0/components/device/silabs/si91x/mcu/drivers/cmsis_driver/GSPI.o
 .text.RSI_GSPI_GetSlaveSelectNumber
                0x00000000        0xc ./wiseconnect3_sdk_3.3.0/components/device/silabs/si91x/mcu/drivers/cmsis_driver/GSPI.o
 .text.GSPI_GetTxCount
                0x00000000       0x18 ./wiseconnect3_sdk_3.3.0/components/device/silabs/si91x/mcu/drivers/cmsis_driver/GSPI.o
 .text          0x00000000        0x0 ./wiseconnect3_sdk_3.3.0/components/device/silabs/si91x/mcu/drivers/cmsis_driver/UDMA.o
 .data          0x00000000        0x0 ./wiseconnect3_sdk_3.3.0/components/device/silabs/si91x/mcu/drivers/cmsis_driver/UDMA.o
 .bss           0x00000000        0x0 ./wiseconnect3_sdk_3.3.0/components/device/silabs/si91x/mcu/drivers/cmsis_driver/UDMA.o
 .text.uDMAx_IRQHandler
                0x00000000      0x304 ./wiseconnect3_sdk_3.3.0/components/device/silabs/si91x/mcu/drivers/cmsis_driver/UDMA.o
 .text          0x00000000        0x0 ./wiseconnect3_sdk_3.3.0/components/device/silabs/si91x/mcu/drivers/cmsis_driver/USART.o
 .data          0x00000000        0x0 ./wiseconnect3_sdk_3.3.0/components/device/silabs/si91x/mcu/drivers/cmsis_driver/USART.o
 .bss           0x00000000        0x0 ./wiseconnect3_sdk_3.3.0/components/device/silabs/si91x/mcu/drivers/cmsis_driver/USART.o
 .text.ARM_USART0_GetCapabilities
                0x00000000        0xc ./wiseconnect3_sdk_3.3.0/components/device/silabs/si91x/mcu/drivers/cmsis_driver/USART.o
 .text.ARM_UART1_GetCapabilities
                0x00000000        0xc ./wiseconnect3_sdk_3.3.0/components/device/silabs/si91x/mcu/drivers/cmsis_driver/USART.o
 .text.ARM_USART0_GetModemStatus
                0x00000000        0xc ./wiseconnect3_sdk_3.3.0/components/device/silabs/si91x/mcu/drivers/cmsis_driver/USART.o
 .text.ARM_UART1_GetModemStatus
                0x00000000        0xc ./wiseconnect3_sdk_3.3.0/components/device/silabs/si91x/mcu/drivers/cmsis_driver/USART.o
 .text.ARM_USART0_SetModemControl
                0x00000000        0xc ./wiseconnect3_sdk_3.3.0/components/device/silabs/si91x/mcu/drivers/cmsis_driver/USART.o
 .text.ARM_UART1_SetModemControl
                0x00000000        0xc ./wiseconnect3_sdk_3.3.0/components/device/silabs/si91x/mcu/drivers/cmsis_driver/USART.o
 .text.ARM_USART0_GetStatus
                0x00000000        0xc ./wiseconnect3_sdk_3.3.0/components/device/silabs/si91x/mcu/drivers/cmsis_driver/USART.o
 .text.ARM_UART1_GetStatus
                0x00000000        0xc ./wiseconnect3_sdk_3.3.0/components/device/silabs/si91x/mcu/drivers/cmsis_driver/USART.o
 .text.ARM_USART0_Control
                0x00000000       0x34 ./wiseconnect3_sdk_3.3.0/components/device/silabs/si91x/mcu/drivers/cmsis_driver/USART.o
 .text.ARM_UART1_Control
                0x00000000       0x34 ./wiseconnect3_sdk_3.3.0/components/device/silabs/si91x/mcu/drivers/cmsis_driver/USART.o
 .text.ARM_USART0_GetRxCount
                0x00000000        0xc ./wiseconnect3_sdk_3.3.0/components/device/silabs/si91x/mcu/drivers/cmsis_driver/USART.o
 .text.ARM_UART1_GetRxCount
                0x00000000        0xc ./wiseconnect3_sdk_3.3.0/components/device/silabs/si91x/mcu/drivers/cmsis_driver/USART.o
 .text.ARM_USART0_GetTxCount
                0x00000000        0xc ./wiseconnect3_sdk_3.3.0/components/device/silabs/si91x/mcu/drivers/cmsis_driver/USART.o
 .text.ARM_UART1_GetTxCount
                0x00000000        0xc ./wiseconnect3_sdk_3.3.0/components/device/silabs/si91x/mcu/drivers/cmsis_driver/USART.o
 .text.ARM_USART0_Transfer
                0x00000000       0x54 ./wiseconnect3_sdk_3.3.0/components/device/silabs/si91x/mcu/drivers/cmsis_driver/USART.o
 .text.ARM_UART1_Transfer
                0x00000000       0x54 ./wiseconnect3_sdk_3.3.0/components/device/silabs/si91x/mcu/drivers/cmsis_driver/USART.o
 .text.ARM_USART0_Receive
                0x00000000       0x48 ./wiseconnect3_sdk_3.3.0/components/device/silabs/si91x/mcu/drivers/cmsis_driver/USART.o
 .text.ARM_UART1_Receive
                0x00000000       0x48 ./wiseconnect3_sdk_3.3.0/components/device/silabs/si91x/mcu/drivers/cmsis_driver/USART.o
 .text.ARM_USART0_Send
                0x00000000       0x48 ./wiseconnect3_sdk_3.3.0/components/device/silabs/si91x/mcu/drivers/cmsis_driver/USART.o
 .text.ARM_UART1_Send
                0x00000000       0x48 ./wiseconnect3_sdk_3.3.0/components/device/silabs/si91x/mcu/drivers/cmsis_driver/USART.o
 .text.ARM_USART0_PowerControl
                0x00000000       0x18 ./wiseconnect3_sdk_3.3.0/components/device/silabs/si91x/mcu/drivers/cmsis_driver/USART.o
 .text.ARM_UART1_PowerControl
                0x00000000       0x18 ./wiseconnect3_sdk_3.3.0/components/device/silabs/si91x/mcu/drivers/cmsis_driver/USART.o
 .text.ARM_USART0_Uninitialize
                0x00000000       0x10 ./wiseconnect3_sdk_3.3.0/components/device/silabs/si91x/mcu/drivers/cmsis_driver/USART.o
 .text.ARM_UART1_Uninitialize
                0x00000000       0x10 ./wiseconnect3_sdk_3.3.0/components/device/silabs/si91x/mcu/drivers/cmsis_driver/USART.o
 .text.ARM_USART0_Initialize
                0x00000000       0x30 ./wiseconnect3_sdk_3.3.0/components/device/silabs/si91x/mcu/drivers/cmsis_driver/USART.o
 .text.ARM_UART1_Initialize
                0x00000000       0x30 ./wiseconnect3_sdk_3.3.0/components/device/silabs/si91x/mcu/drivers/cmsis_driver/USART.o
 .text.USART_GetCapabilities
                0x00000000        0x4 ./wiseconnect3_sdk_3.3.0/components/device/silabs/si91x/mcu/drivers/cmsis_driver/USART.o
 .text.RSI_M4SSUsart0Handler
                0x00000000        0x4 ./wiseconnect3_sdk_3.3.0/components/device/silabs/si91x/mcu/drivers/cmsis_driver/USART.o
 .text.RSI_M4SSUart1Handler
                0x00000000        0x4 ./wiseconnect3_sdk_3.3.0/components/device/silabs/si91x/mcu/drivers/cmsis_driver/USART.o
 .text.USART_GetParity_StopBit
                0x00000000       0x2c ./wiseconnect3_sdk_3.3.0/components/device/silabs/si91x/mcu/drivers/cmsis_driver/USART.o
 .text.USART_GetBaudrate
                0x00000000       0x2c ./wiseconnect3_sdk_3.3.0/components/device/silabs/si91x/mcu/drivers/cmsis_driver/USART.o
 .text.USART_GetInitState
                0x00000000       0x30 ./wiseconnect3_sdk_3.3.0/components/device/silabs/si91x/mcu/drivers/cmsis_driver/USART.o
 .rodata.Driver_UART1
                0x00000000       0x38 ./wiseconnect3_sdk_3.3.0/components/device/silabs/si91x/mcu/drivers/cmsis_driver/USART.o
 .rodata.Driver_USART0
                0x00000000       0x38 ./wiseconnect3_sdk_3.3.0/components/device/silabs/si91x/mcu/drivers/cmsis_driver/USART.o
 .text          0x00000000        0x0 ./wiseconnect3_sdk_3.3.0/components/device/silabs/si91x/mcu/drivers/peripheral_drivers/src/clock_update.o
 .data          0x00000000        0x0 ./wiseconnect3_sdk_3.3.0/components/device/silabs/si91x/mcu/drivers/peripheral_drivers/src/clock_update.o
 .bss           0x00000000        0x0 ./wiseconnect3_sdk_3.3.0/components/device/silabs/si91x/mcu/drivers/peripheral_drivers/src/clock_update.o
 .text          0x00000000        0x0 ./wiseconnect3_sdk_3.3.0/components/device/silabs/si91x/mcu/drivers/peripheral_drivers/src/rsi_crc.o
 .data          0x00000000        0x0 ./wiseconnect3_sdk_3.3.0/components/device/silabs/si91x/mcu/drivers/peripheral_drivers/src/rsi_crc.o
 .bss           0x00000000        0x0 ./wiseconnect3_sdk_3.3.0/components/device/silabs/si91x/mcu/drivers/peripheral_drivers/src/rsi_crc.o
 .debug_line    0x00000000        0x0 ./wiseconnect3_sdk_3.3.0/components/device/silabs/si91x/mcu/drivers/peripheral_drivers/src/rsi_crc.o
 .debug_str     0x00000000      0x1ad ./wiseconnect3_sdk_3.3.0/components/device/silabs/si91x/mcu/drivers/peripheral_drivers/src/rsi_crc.o
 .comment       0x00000000       0x46 ./wiseconnect3_sdk_3.3.0/components/device/silabs/si91x/mcu/drivers/peripheral_drivers/src/rsi_crc.o
 .ARM.attributes
                0x00000000       0x32 ./wiseconnect3_sdk_3.3.0/components/device/silabs/si91x/mcu/drivers/peripheral_drivers/src/rsi_crc.o
 .text          0x00000000        0x0 ./wiseconnect3_sdk_3.3.0/components/device/silabs/si91x/mcu/drivers/peripheral_drivers/src/rsi_egpio.o
 .data          0x00000000        0x0 ./wiseconnect3_sdk_3.3.0/components/device/silabs/si91x/mcu/drivers/peripheral_drivers/src/rsi_egpio.o
 .bss           0x00000000        0x0 ./wiseconnect3_sdk_3.3.0/components/device/silabs/si91x/mcu/drivers/peripheral_drivers/src/rsi_egpio.o
 .debug_info    0x00000000       0x80 ./wiseconnect3_sdk_3.3.0/components/device/silabs/si91x/mcu/drivers/peripheral_drivers/src/rsi_egpio.o
 .debug_abbrev  0x00000000       0x26 ./wiseconnect3_sdk_3.3.0/components/device/silabs/si91x/mcu/drivers/peripheral_drivers/src/rsi_egpio.o
 .debug_aranges
                0x00000000       0x18 ./wiseconnect3_sdk_3.3.0/components/device/silabs/si91x/mcu/drivers/peripheral_drivers/src/rsi_egpio.o
 .debug_line    0x00000000       0xba ./wiseconnect3_sdk_3.3.0/components/device/silabs/si91x/mcu/drivers/peripheral_drivers/src/rsi_egpio.o
 .debug_str     0x00000000      0x251 ./wiseconnect3_sdk_3.3.0/components/device/silabs/si91x/mcu/drivers/peripheral_drivers/src/rsi_egpio.o
 .comment       0x00000000       0x46 ./wiseconnect3_sdk_3.3.0/components/device/silabs/si91x/mcu/drivers/peripheral_drivers/src/rsi_egpio.o
 .ARM.attributes
                0x00000000       0x32 ./wiseconnect3_sdk_3.3.0/components/device/silabs/si91x/mcu/drivers/peripheral_drivers/src/rsi_egpio.o
 .text          0x00000000        0x0 ./wiseconnect3_sdk_3.3.0/components/device/silabs/si91x/mcu/drivers/peripheral_drivers/src/rsi_gspi.o
 .data          0x00000000        0x0 ./wiseconnect3_sdk_3.3.0/components/device/silabs/si91x/mcu/drivers/peripheral_drivers/src/rsi_gspi.o
 .bss           0x00000000        0x0 ./wiseconnect3_sdk_3.3.0/components/device/silabs/si91x/mcu/drivers/peripheral_drivers/src/rsi_gspi.o
 .text          0x00000000        0x0 ./wiseconnect3_sdk_3.3.0/components/device/silabs/si91x/mcu/drivers/peripheral_drivers/src/rsi_timers.o
 .data          0x00000000        0x0 ./wiseconnect3_sdk_3.3.0/components/device/silabs/si91x/mcu/drivers/peripheral_drivers/src/rsi_timers.o
 .bss           0x00000000        0x0 ./wiseconnect3_sdk_3.3.0/components/device/silabs/si91x/mcu/drivers/peripheral_drivers/src/rsi_timers.o
 .debug_info    0x00000000       0x25 ./wiseconnect3_sdk_3.3.0/components/device/silabs/si91x/mcu/drivers/peripheral_drivers/src/rsi_timers.o
 .debug_abbrev  0x00000000       0x1b ./wiseconnect3_sdk_3.3.0/components/device/silabs/si91x/mcu/drivers/peripheral_drivers/src/rsi_timers.o
 .debug_aranges
                0x00000000       0x18 ./wiseconnect3_sdk_3.3.0/components/device/silabs/si91x/mcu/drivers/peripheral_drivers/src/rsi_timers.o
 .debug_line    0x00000000       0xbb ./wiseconnect3_sdk_3.3.0/components/device/silabs/si91x/mcu/drivers/peripheral_drivers/src/rsi_timers.o
 .debug_str     0x00000000      0x1b0 ./wiseconnect3_sdk_3.3.0/components/device/silabs/si91x/mcu/drivers/peripheral_drivers/src/rsi_timers.o
 .comment       0x00000000       0x46 ./wiseconnect3_sdk_3.3.0/components/device/silabs/si91x/mcu/drivers/peripheral_drivers/src/rsi_timers.o
 .ARM.attributes
                0x00000000       0x32 ./wiseconnect3_sdk_3.3.0/components/device/silabs/si91x/mcu/drivers/peripheral_drivers/src/rsi_timers.o
 .text          0x00000000        0x0 ./wiseconnect3_sdk_3.3.0/components/device/silabs/si91x/mcu/drivers/peripheral_drivers/src/rsi_udma.o
 .data          0x00000000        0x0 ./wiseconnect3_sdk_3.3.0/components/device/silabs/si91x/mcu/drivers/peripheral_drivers/src/rsi_udma.o
 .bss           0x00000000        0x0 ./wiseconnect3_sdk_3.3.0/components/device/silabs/si91x/mcu/drivers/peripheral_drivers/src/rsi_udma.o
 .debug_info    0x00000000       0x25 ./wiseconnect3_sdk_3.3.0/components/device/silabs/si91x/mcu/drivers/peripheral_drivers/src/rsi_udma.o
 .debug_abbrev  0x00000000       0x1b ./wiseconnect3_sdk_3.3.0/components/device/silabs/si91x/mcu/drivers/peripheral_drivers/src/rsi_udma.o
 .debug_aranges
                0x00000000       0x18 ./wiseconnect3_sdk_3.3.0/components/device/silabs/si91x/mcu/drivers/peripheral_drivers/src/rsi_udma.o
 .debug_line    0x00000000       0xb9 ./wiseconnect3_sdk_3.3.0/components/device/silabs/si91x/mcu/drivers/peripheral_drivers/src/rsi_udma.o
 .debug_str     0x00000000      0x1ae ./wiseconnect3_sdk_3.3.0/components/device/silabs/si91x/mcu/drivers/peripheral_drivers/src/rsi_udma.o
 .comment       0x00000000       0x46 ./wiseconnect3_sdk_3.3.0/components/device/silabs/si91x/mcu/drivers/peripheral_drivers/src/rsi_udma.o
 .ARM.attributes
                0x00000000       0x32 ./wiseconnect3_sdk_3.3.0/components/device/silabs/si91x/mcu/drivers/peripheral_drivers/src/rsi_udma.o
 .text          0x00000000        0x0 ./wiseconnect3_sdk_3.3.0/components/device/silabs/si91x/mcu/drivers/peripheral_drivers/src/rsi_udma_wrapper.o
 .data          0x00000000        0x0 ./wiseconnect3_sdk_3.3.0/components/device/silabs/si91x/mcu/drivers/peripheral_drivers/src/rsi_udma_wrapper.o
 .bss           0x00000000        0x0 ./wiseconnect3_sdk_3.3.0/components/device/silabs/si91x/mcu/drivers/peripheral_drivers/src/rsi_udma_wrapper.o
 .debug_info    0x00000000       0x25 ./wiseconnect3_sdk_3.3.0/components/device/silabs/si91x/mcu/drivers/peripheral_drivers/src/rsi_udma_wrapper.o
 .debug_abbrev  0x00000000       0x1b ./wiseconnect3_sdk_3.3.0/components/device/silabs/si91x/mcu/drivers/peripheral_drivers/src/rsi_udma_wrapper.o
 .debug_aranges
                0x00000000       0x18 ./wiseconnect3_sdk_3.3.0/components/device/silabs/si91x/mcu/drivers/peripheral_drivers/src/rsi_udma_wrapper.o
 .debug_line    0x00000000       0xc1 ./wiseconnect3_sdk_3.3.0/components/device/silabs/si91x/mcu/drivers/peripheral_drivers/src/rsi_udma_wrapper.o
 .debug_str     0x00000000      0x1b6 ./wiseconnect3_sdk_3.3.0/components/device/silabs/si91x/mcu/drivers/peripheral_drivers/src/rsi_udma_wrapper.o
 .comment       0x00000000       0x46 ./wiseconnect3_sdk_3.3.0/components/device/silabs/si91x/mcu/drivers/peripheral_drivers/src/rsi_udma_wrapper.o
 .ARM.attributes
                0x00000000       0x32 ./wiseconnect3_sdk_3.3.0/components/device/silabs/si91x/mcu/drivers/peripheral_drivers/src/rsi_udma_wrapper.o
 .text          0x00000000        0x0 ./wiseconnect3_sdk_3.3.0/components/device/silabs/si91x/mcu/drivers/peripheral_drivers/src/rsi_usart.o
 .data          0x00000000        0x0 ./wiseconnect3_sdk_3.3.0/components/device/silabs/si91x/mcu/drivers/peripheral_drivers/src/rsi_usart.o
 .bss           0x00000000        0x0 ./wiseconnect3_sdk_3.3.0/components/device/silabs/si91x/mcu/drivers/peripheral_drivers/src/rsi_usart.o
 .text.USART_UDMA_Tx_Event
                0x00000000       0x3c ./wiseconnect3_sdk_3.3.0/components/device/silabs/si91x/mcu/drivers/peripheral_drivers/src/rsi_usart.o
 .text.USART_UDMA_Rx_Event
                0x00000000       0x80 ./wiseconnect3_sdk_3.3.0/components/device/silabs/si91x/mcu/drivers/peripheral_drivers/src/rsi_usart.o
 .text          0x00000000        0x0 ./wiseconnect3_sdk_3.3.0/components/device/silabs/si91x/mcu/drivers/service/clock_manager/src/sl_si91x_clock_manager.o
 .data          0x00000000        0x0 ./wiseconnect3_sdk_3.3.0/components/device/silabs/si91x/mcu/drivers/service/clock_manager/src/sl_si91x_clock_manager.o
 .bss           0x00000000        0x0 ./wiseconnect3_sdk_3.3.0/components/device/silabs/si91x/mcu/drivers/service/clock_manager/src/sl_si91x_clock_manager.o
 .text.convert_rsi_to_sl_error_code
                0x00000000       0x58 ./wiseconnect3_sdk_3.3.0/components/device/silabs/si91x/mcu/drivers/service/clock_manager/src/sl_si91x_clock_manager.o
 .text.sl_si91x_clock_manager_set_pll_freq
                0x00000000       0xe8 ./wiseconnect3_sdk_3.3.0/components/device/silabs/si91x/mcu/drivers/service/clock_manager/src/sl_si91x_clock_manager.o
 .text.sl_si91x_clock_manager_m4_set_core_clk
                0x00000000       0x60 ./wiseconnect3_sdk_3.3.0/components/device/silabs/si91x/mcu/drivers/service/clock_manager/src/sl_si91x_clock_manager.o
 .text.sl_si91x_clock_manager_m4_get_core_clk_src_freq
                0x00000000       0x18 ./wiseconnect3_sdk_3.3.0/components/device/silabs/si91x/mcu/drivers/service/clock_manager/src/sl_si91x_clock_manager.o
 .debug_info    0x00000000    0x14a74 ./wiseconnect3_sdk_3.3.0/components/device/silabs/si91x/mcu/drivers/service/clock_manager/src/sl_si91x_clock_manager.o
 .debug_abbrev  0x00000000      0x484 ./wiseconnect3_sdk_3.3.0/components/device/silabs/si91x/mcu/drivers/service/clock_manager/src/sl_si91x_clock_manager.o
 .debug_loc     0x00000000      0x678 ./wiseconnect3_sdk_3.3.0/components/device/silabs/si91x/mcu/drivers/service/clock_manager/src/sl_si91x_clock_manager.o
 .debug_aranges
                0x00000000       0x38 ./wiseconnect3_sdk_3.3.0/components/device/silabs/si91x/mcu/drivers/service/clock_manager/src/sl_si91x_clock_manager.o
 .debug_ranges  0x00000000       0x60 ./wiseconnect3_sdk_3.3.0/components/device/silabs/si91x/mcu/drivers/service/clock_manager/src/sl_si91x_clock_manager.o
 .debug_line    0x00000000      0xa8b ./wiseconnect3_sdk_3.3.0/components/device/silabs/si91x/mcu/drivers/service/clock_manager/src/sl_si91x_clock_manager.o
 .debug_str     0x00000000     0xe2e9 ./wiseconnect3_sdk_3.3.0/components/device/silabs/si91x/mcu/drivers/service/clock_manager/src/sl_si91x_clock_manager.o
 .comment       0x00000000       0x46 ./wiseconnect3_sdk_3.3.0/components/device/silabs/si91x/mcu/drivers/service/clock_manager/src/sl_si91x_clock_manager.o
 .debug_frame   0x00000000       0x80 ./wiseconnect3_sdk_3.3.0/components/device/silabs/si91x/mcu/drivers/service/clock_manager/src/sl_si91x_clock_manager.o
 .ARM.attributes
                0x00000000       0x32 ./wiseconnect3_sdk_3.3.0/components/device/silabs/si91x/mcu/drivers/service/clock_manager/src/sl_si91x_clock_manager.o
 .text          0x00000000        0x0 ./wiseconnect3_sdk_3.3.0/components/device/silabs/si91x/mcu/drivers/systemlevel/src/rsi_ipmu.o
 .data          0x00000000        0x0 ./wiseconnect3_sdk_3.3.0/components/device/silabs/si91x/mcu/drivers/systemlevel/src/rsi_ipmu.o
 .bss           0x00000000        0x0 ./wiseconnect3_sdk_3.3.0/components/device/silabs/si91x/mcu/drivers/systemlevel/src/rsi_ipmu.o
 .text.RSI_IPMU_InitCalibData
                0x00000000       0x44 ./wiseconnect3_sdk_3.3.0/components/device/silabs/si91x/mcu/drivers/systemlevel/src/rsi_ipmu.o
 .text.update_efuse_system_configs
                0x00000000        0xc ./wiseconnect3_sdk_3.3.0/components/device/silabs/si91x/mcu/drivers/systemlevel/src/rsi_ipmu.o
 .text.RSI_Configure_DCDC_LowerVoltage
                0x00000000       0x24 ./wiseconnect3_sdk_3.3.0/components/device/silabs/si91x/mcu/drivers/systemlevel/src/rsi_ipmu.o
 .text.RSI_IPMU_PowerGateSet
                0x00000000       0x34 ./wiseconnect3_sdk_3.3.0/components/device/silabs/si91x/mcu/drivers/systemlevel/src/rsi_ipmu.o
 .text.RSI_IPMU_PowerGateClr
                0x00000000       0x4c ./wiseconnect3_sdk_3.3.0/components/device/silabs/si91x/mcu/drivers/systemlevel/src/rsi_ipmu.o
 .text.RSI_IPMU_32MHzClkClib
                0x00000000       0xac ./wiseconnect3_sdk_3.3.0/components/device/silabs/si91x/mcu/drivers/systemlevel/src/rsi_ipmu.o
 .text.RSI_APB_ProgramConfigData
                0x00000000       0xc8 ./wiseconnect3_sdk_3.3.0/components/device/silabs/si91x/mcu/drivers/systemlevel/src/rsi_ipmu.o
 .text.RSI_IPMU_CommonConfig
                0x00000000        0xc ./wiseconnect3_sdk_3.3.0/components/device/silabs/si91x/mcu/drivers/systemlevel/src/rsi_ipmu.o
 .text.RSI_IPMU_PMUCommonConfig
                0x00000000        0xc ./wiseconnect3_sdk_3.3.0/components/device/silabs/si91x/mcu/drivers/systemlevel/src/rsi_ipmu.o
 .text.RSI_IPMU_PocbiasCurrent
                0x00000000        0xc ./wiseconnect3_sdk_3.3.0/components/device/silabs/si91x/mcu/drivers/systemlevel/src/rsi_ipmu.o
 .text.RSI_IPMU_PocbiasCurrent11
                0x00000000        0xc ./wiseconnect3_sdk_3.3.0/components/device/silabs/si91x/mcu/drivers/systemlevel/src/rsi_ipmu.o
 .text.RSI_IPMU_RO32khzTrim00Efuse
                0x00000000        0xc ./wiseconnect3_sdk_3.3.0/components/device/silabs/si91x/mcu/drivers/systemlevel/src/rsi_ipmu.o
 .text.RSI_IPMU_RetnLdoVoltsel
                0x00000000        0xc ./wiseconnect3_sdk_3.3.0/components/device/silabs/si91x/mcu/drivers/systemlevel/src/rsi_ipmu.o
 .text.RSI_IPMU_RetnLdo0p75
                0x00000000        0xc ./wiseconnect3_sdk_3.3.0/components/device/silabs/si91x/mcu/drivers/systemlevel/src/rsi_ipmu.o
 .text.RSI_IPMU_RetnLdoLpmode
                0x00000000       0x1c ./wiseconnect3_sdk_3.3.0/components/device/silabs/si91x/mcu/drivers/systemlevel/src/rsi_ipmu.o
 .text.RSI_IPMU_Retn_Voltage_Reduction
                0x00000000       0x14 ./wiseconnect3_sdk_3.3.0/components/device/silabs/si91x/mcu/drivers/systemlevel/src/rsi_ipmu.o
 .text.RSI_IPMU_Retn_Voltage_To_Default
                0x00000000       0x10 ./wiseconnect3_sdk_3.3.0/components/device/silabs/si91x/mcu/drivers/systemlevel/src/rsi_ipmu.o
 .text.RSI_IPMU_Set_Higher_Pwm_Ro_Frequency_Mode_to_PMU
                0x00000000       0x14 ./wiseconnect3_sdk_3.3.0/components/device/silabs/si91x/mcu/drivers/systemlevel/src/rsi_ipmu.o
 .text.RSI_IPMU_RetnLdoHpmode
                0x00000000       0x1c ./wiseconnect3_sdk_3.3.0/components/device/silabs/si91x/mcu/drivers/systemlevel/src/rsi_ipmu.o
 .text.RSI_IPMU_SCDC_Enable
                0x00000000        0xc ./wiseconnect3_sdk_3.3.0/components/device/silabs/si91x/mcu/drivers/systemlevel/src/rsi_ipmu.o
 .text.RSI_IPMU_HP_LDO_Enable
                0x00000000        0xc ./wiseconnect3_sdk_3.3.0/components/device/silabs/si91x/mcu/drivers/systemlevel/src/rsi_ipmu.o
 .text.RSI_IPMU_M20rcOsc_TrimEfuse
                0x00000000       0x28 ./wiseconnect3_sdk_3.3.0/components/device/silabs/si91x/mcu/drivers/systemlevel/src/rsi_ipmu.o
 .text.RSI_IPMU_RC16khz_TrimEfuse
                0x00000000       0x18 ./wiseconnect3_sdk_3.3.0/components/device/silabs/si91x/mcu/drivers/systemlevel/src/rsi_ipmu.o
 .text.RSI_IPMU_RC64khz_TrimEfuse
                0x00000000       0x18 ./wiseconnect3_sdk_3.3.0/components/device/silabs/si91x/mcu/drivers/systemlevel/src/rsi_ipmu.o
 .text.RSI_IPMU_RO_TsEfuse
                0x00000000        0xc ./wiseconnect3_sdk_3.3.0/components/device/silabs/si91x/mcu/drivers/systemlevel/src/rsi_ipmu.o
 .text.RSI_IPMU_RO_TsConfig
                0x00000000        0xc ./wiseconnect3_sdk_3.3.0/components/device/silabs/si91x/mcu/drivers/systemlevel/src/rsi_ipmu.o
 .text.RSI_IPMU_Vbattstatus_TrimEfuse
                0x00000000        0xc ./wiseconnect3_sdk_3.3.0/components/device/silabs/si91x/mcu/drivers/systemlevel/src/rsi_ipmu.o
 .text.RSI_IPMU_Vbg_Tsbjt_Efuse
                0x00000000        0xc ./wiseconnect3_sdk_3.3.0/components/device/silabs/si91x/mcu/drivers/systemlevel/src/rsi_ipmu.o
 .text.RSI_IPMU_Auxadcoff_DiffEfuse
                0x00000000        0xc ./wiseconnect3_sdk_3.3.0/components/device/silabs/si91x/mcu/drivers/systemlevel/src/rsi_ipmu.o
 .text.RSI_IPMU_Auxadcgain_DiffEfuse
                0x00000000        0xc ./wiseconnect3_sdk_3.3.0/components/device/silabs/si91x/mcu/drivers/systemlevel/src/rsi_ipmu.o
 .text.RSI_IPMU_Auxadcoff_SeEfuse
                0x00000000        0xc ./wiseconnect3_sdk_3.3.0/components/device/silabs/si91x/mcu/drivers/systemlevel/src/rsi_ipmu.o
 .text.RSI_IPMU_Auxadcgain_SeEfuse
                0x00000000        0xc ./wiseconnect3_sdk_3.3.0/components/device/silabs/si91x/mcu/drivers/systemlevel/src/rsi_ipmu.o
 .text.RSI_IPMU_Bg_TrimEfuse
                0x00000000        0xc ./wiseconnect3_sdk_3.3.0/components/device/silabs/si91x/mcu/drivers/systemlevel/src/rsi_ipmu.o
 .text.RSI_IPMU_Blackout_TrimEfuse
                0x00000000        0xc ./wiseconnect3_sdk_3.3.0/components/device/silabs/si91x/mcu/drivers/systemlevel/src/rsi_ipmu.o
 .text.RSI_IPMU_POCbias_Efuse
                0x00000000        0xc ./wiseconnect3_sdk_3.3.0/components/device/silabs/si91x/mcu/drivers/systemlevel/src/rsi_ipmu.o
 .text.RSI_IPMU_Buck_TrimEfuse
                0x00000000        0xc ./wiseconnect3_sdk_3.3.0/components/device/silabs/si91x/mcu/drivers/systemlevel/src/rsi_ipmu.o
 .text.RSI_IPMU_Ldosoc_TrimEfuse
                0x00000000        0xc ./wiseconnect3_sdk_3.3.0/components/device/silabs/si91x/mcu/drivers/systemlevel/src/rsi_ipmu.o
 .text.RSI_IPMU_Dpwmfreq_TrimEfuse
                0x00000000        0xc ./wiseconnect3_sdk_3.3.0/components/device/silabs/si91x/mcu/drivers/systemlevel/src/rsi_ipmu.o
 .text.RSI_IPMU_Delvbe_Tsbjt_Efuse
                0x00000000        0xc ./wiseconnect3_sdk_3.3.0/components/device/silabs/si91x/mcu/drivers/systemlevel/src/rsi_ipmu.o
 .text.RSI_IPMU_Xtal1bias_Efuse
                0x00000000        0xc ./wiseconnect3_sdk_3.3.0/components/device/silabs/si91x/mcu/drivers/systemlevel/src/rsi_ipmu.o
 .text.RSI_IPMU_Xtal2bias_Efuse
                0x00000000        0xc ./wiseconnect3_sdk_3.3.0/components/device/silabs/si91x/mcu/drivers/systemlevel/src/rsi_ipmu.o
 .text.RSI_IPMU_RetnHP_Volttrim_Efuse
                0x00000000        0xc ./wiseconnect3_sdk_3.3.0/components/device/silabs/si91x/mcu/drivers/systemlevel/src/rsi_ipmu.o
 .text.RSI_IPMU_BOD_ClksCommonconfig1
                0x00000000        0xc ./wiseconnect3_sdk_3.3.0/components/device/silabs/si91x/mcu/drivers/systemlevel/src/rsi_ipmu.o
 .text.RSI_IPMU_BOD_ClksCommonconfig2
                0x00000000        0xc ./wiseconnect3_sdk_3.3.0/components/device/silabs/si91x/mcu/drivers/systemlevel/src/rsi_ipmu.o
 .text.RSI_IPMU_Hpldo_volt_trim_efuse
                0x00000000        0xc ./wiseconnect3_sdk_3.3.0/components/device/silabs/si91x/mcu/drivers/systemlevel/src/rsi_ipmu.o
 .text.RSI_IPMU_Scdc_volt_trim_efuse
                0x00000000        0xc ./wiseconnect3_sdk_3.3.0/components/device/silabs/si91x/mcu/drivers/systemlevel/src/rsi_ipmu.o
 .text.RSI_IPMU_Reconfig_to_SCDCDC
                0x00000000       0x24 ./wiseconnect3_sdk_3.3.0/components/device/silabs/si91x/mcu/drivers/systemlevel/src/rsi_ipmu.o
 .text.RSI_IPMU_Lp_scdc_extcapmode
                0x00000000        0xc ./wiseconnect3_sdk_3.3.0/components/device/silabs/si91x/mcu/drivers/systemlevel/src/rsi_ipmu.o
 .text.RSI_IPMU_BOD_Cmphyst
                0x00000000        0xc ./wiseconnect3_sdk_3.3.0/components/device/silabs/si91x/mcu/drivers/systemlevel/src/rsi_ipmu.o
 .text.RSI_IPMU_20M_ROClktrim
                0x00000000       0xf8 ./wiseconnect3_sdk_3.3.0/components/device/silabs/si91x/mcu/drivers/systemlevel/src/rsi_ipmu.o
 .text.RSI_Clks_Calibration
                0x00000000       0x74 ./wiseconnect3_sdk_3.3.0/components/device/silabs/si91x/mcu/drivers/systemlevel/src/rsi_ipmu.o
 .text.RSI_IPMU_32KHzROClkClib
                0x00000000       0xb0 ./wiseconnect3_sdk_3.3.0/components/device/silabs/si91x/mcu/drivers/systemlevel/src/rsi_ipmu.o
 .text.RSI_IPMU_32KHzRCClkClib
                0x00000000       0xb0 ./wiseconnect3_sdk_3.3.0/components/device/silabs/si91x/mcu/drivers/systemlevel/src/rsi_ipmu.o
 .text.RSI_Clks_Trim32MHzRC
                0x00000000       0xe4 ./wiseconnect3_sdk_3.3.0/components/device/silabs/si91x/mcu/drivers/systemlevel/src/rsi_ipmu.o
 .text.RSI_IPMU_64KHZ_RCClktrim
                0x00000000       0x90 ./wiseconnect3_sdk_3.3.0/components/device/silabs/si91x/mcu/drivers/systemlevel/src/rsi_ipmu.o
 .text          0x00000000        0x0 ./wiseconnect3_sdk_3.3.0/components/device/silabs/si91x/mcu/drivers/systemlevel/src/rsi_pll.o
 .data          0x00000000        0x0 ./wiseconnect3_sdk_3.3.0/components/device/silabs/si91x/mcu/drivers/systemlevel/src/rsi_pll.o
 .bss           0x00000000        0x0 ./wiseconnect3_sdk_3.3.0/components/device/silabs/si91x/mcu/drivers/systemlevel/src/rsi_pll.o
 .text.clk_config_pll_lock
                0x00000000       0x24 ./wiseconnect3_sdk_3.3.0/components/device/silabs/si91x/mcu/drivers/systemlevel/src/rsi_pll.o
 .text.RSI_CLK_CheckPresent
                0x00000000       0x38 ./wiseconnect3_sdk_3.3.0/components/device/silabs/si91x/mcu/drivers/systemlevel/src/rsi_pll.o
 .text.ulpss_disable_ref_clks
                0x00000000       0x80 ./wiseconnect3_sdk_3.3.0/components/device/silabs/si91x/mcu/drivers/systemlevel/src/rsi_pll.o
 .text.clk_m4_soc_clk_config
                0x00000000       0xc8 ./wiseconnect3_sdk_3.3.0/components/device/silabs/si91x/mcu/drivers/systemlevel/src/rsi_pll.o
 .text          0x00000000        0x0 ./wiseconnect3_sdk_3.3.0/components/device/silabs/si91x/mcu/drivers/systemlevel/src/rsi_temp_sensor.o
 .data          0x00000000        0x0 ./wiseconnect3_sdk_3.3.0/components/device/silabs/si91x/mcu/drivers/systemlevel/src/rsi_temp_sensor.o
 .bss           0x00000000        0x0 ./wiseconnect3_sdk_3.3.0/components/device/silabs/si91x/mcu/drivers/systemlevel/src/rsi_temp_sensor.o
 .text.RSI_TS_SetCntFreez
                0x00000000        0xa ./wiseconnect3_sdk_3.3.0/components/device/silabs/si91x/mcu/drivers/systemlevel/src/rsi_temp_sensor.o
 .text.RSI_TS_RefClkSel
                0x00000000        0xa ./wiseconnect3_sdk_3.3.0/components/device/silabs/si91x/mcu/drivers/systemlevel/src/rsi_temp_sensor.o
 .text.RSI_TS_Enable
                0x00000000        0xa ./wiseconnect3_sdk_3.3.0/components/device/silabs/si91x/mcu/drivers/systemlevel/src/rsi_temp_sensor.o
 .text.RSI_TS_Config
                0x00000000       0x36 ./wiseconnect3_sdk_3.3.0/components/device/silabs/si91x/mcu/drivers/systemlevel/src/rsi_temp_sensor.o
 .text.RSI_TS_ReadTemp
                0x00000000        0xe ./wiseconnect3_sdk_3.3.0/components/device/silabs/si91x/mcu/drivers/systemlevel/src/rsi_temp_sensor.o
 .text.RSI_TS_RoBjtEnable
                0x00000000       0x26 ./wiseconnect3_sdk_3.3.0/components/device/silabs/si91x/mcu/drivers/systemlevel/src/rsi_temp_sensor.o
 .text.RSI_TS_LoadBjt
                0x00000000       0x12 ./wiseconnect3_sdk_3.3.0/components/device/silabs/si91x/mcu/drivers/systemlevel/src/rsi_temp_sensor.o
 .text.RSI_TS_GetRefClkCnt
                0x00000000        0x8 ./wiseconnect3_sdk_3.3.0/components/device/silabs/si91x/mcu/drivers/systemlevel/src/rsi_temp_sensor.o
 .text.RSI_TS_GetPtatClkCnt
                0x00000000        0x8 ./wiseconnect3_sdk_3.3.0/components/device/silabs/si91x/mcu/drivers/systemlevel/src/rsi_temp_sensor.o
 .text.RSI_Periodic_TempUpdate
                0x00000000       0x12 ./wiseconnect3_sdk_3.3.0/components/device/silabs/si91x/mcu/drivers/systemlevel/src/rsi_temp_sensor.o
 .debug_info    0x00000000      0xa65 ./wiseconnect3_sdk_3.3.0/components/device/silabs/si91x/mcu/drivers/systemlevel/src/rsi_temp_sensor.o
 .debug_abbrev  0x00000000      0x194 ./wiseconnect3_sdk_3.3.0/components/device/silabs/si91x/mcu/drivers/systemlevel/src/rsi_temp_sensor.o
 .debug_loc     0x00000000       0xdf ./wiseconnect3_sdk_3.3.0/components/device/silabs/si91x/mcu/drivers/systemlevel/src/rsi_temp_sensor.o
 .debug_aranges
                0x00000000       0x68 ./wiseconnect3_sdk_3.3.0/components/device/silabs/si91x/mcu/drivers/systemlevel/src/rsi_temp_sensor.o
 .debug_ranges  0x00000000       0x58 ./wiseconnect3_sdk_3.3.0/components/device/silabs/si91x/mcu/drivers/systemlevel/src/rsi_temp_sensor.o
 .debug_line    0x00000000      0x4bc ./wiseconnect3_sdk_3.3.0/components/device/silabs/si91x/mcu/drivers/systemlevel/src/rsi_temp_sensor.o
 .debug_str     0x00000000      0x8da ./wiseconnect3_sdk_3.3.0/components/device/silabs/si91x/mcu/drivers/systemlevel/src/rsi_temp_sensor.o
 .comment       0x00000000       0x46 ./wiseconnect3_sdk_3.3.0/components/device/silabs/si91x/mcu/drivers/systemlevel/src/rsi_temp_sensor.o
 .debug_frame   0x00000000       0xbc ./wiseconnect3_sdk_3.3.0/components/device/silabs/si91x/mcu/drivers/systemlevel/src/rsi_temp_sensor.o
 .ARM.attributes
                0x00000000       0x32 ./wiseconnect3_sdk_3.3.0/components/device/silabs/si91x/mcu/drivers/systemlevel/src/rsi_temp_sensor.o
 .text          0x00000000        0x0 ./wiseconnect3_sdk_3.3.0/components/device/silabs/si91x/mcu/drivers/systemlevel/src/rsi_ulpss_clk.o
 .data          0x00000000        0x0 ./wiseconnect3_sdk_3.3.0/components/device/silabs/si91x/mcu/drivers/systemlevel/src/rsi_ulpss_clk.o
 .bss           0x00000000        0x0 ./wiseconnect3_sdk_3.3.0/components/device/silabs/si91x/mcu/drivers/systemlevel/src/rsi_ulpss_clk.o
 .text.RSI_SetRegSpiDivision
                0x00000000       0x18 ./wiseconnect3_sdk_3.3.0/components/device/silabs/si91x/mcu/drivers/systemlevel/src/rsi_ulpss_clk.o
 .text.ulpss_peripheral_disable
                0x00000000      0x198 ./wiseconnect3_sdk_3.3.0/components/device/silabs/si91x/mcu/drivers/systemlevel/src/rsi_ulpss_clk.o
 .text.ulpss_time_clk_disable
                0x00000000       0x34 ./wiseconnect3_sdk_3.3.0/components/device/silabs/si91x/mcu/drivers/systemlevel/src/rsi_ulpss_clk.o
 .text.ulpss_ulp_proc_clk_config
                0x00000000      0x14c ./wiseconnect3_sdk_3.3.0/components/device/silabs/si91x/mcu/drivers/systemlevel/src/rsi_ulpss_clk.o
 .text          0x00000000        0x0 ./wiseconnect3_sdk_3.3.0/components/device/silabs/si91x/mcu/drivers/unified_api/src/sl_si91x_dma.o
 .data          0x00000000        0x0 ./wiseconnect3_sdk_3.3.0/components/device/silabs/si91x/mcu/drivers/unified_api/src/sl_si91x_dma.o
 .bss           0x00000000        0x0 ./wiseconnect3_sdk_3.3.0/components/device/silabs/si91x/mcu/drivers/unified_api/src/sl_si91x_dma.o
 .text.sl_si91x_dma_deinit
                0x00000000       0x8c ./wiseconnect3_sdk_3.3.0/components/device/silabs/si91x/mcu/drivers/unified_api/src/sl_si91x_dma.o
 .text.sl_si91x_dma_deallocate_channel
                0x00000000       0x7c ./wiseconnect3_sdk_3.3.0/components/device/silabs/si91x/mcu/drivers/unified_api/src/sl_si91x_dma.o
 .text.sl_si91x_dma_simple_transfer
                0x00000000      0x1b0 ./wiseconnect3_sdk_3.3.0/components/device/silabs/si91x/mcu/drivers/unified_api/src/sl_si91x_dma.o
 .text.sl_si91x_dma_stop_transfer
                0x00000000       0x38 ./wiseconnect3_sdk_3.3.0/components/device/silabs/si91x/mcu/drivers/unified_api/src/sl_si91x_dma.o
 .text.sl_si91x_dma_channel_status_get
                0x00000000       0x64 ./wiseconnect3_sdk_3.3.0/components/device/silabs/si91x/mcu/drivers/unified_api/src/sl_si91x_dma.o
 .text.sl_si91x_dma_channel_disable
                0x00000000        0x4 ./wiseconnect3_sdk_3.3.0/components/device/silabs/si91x/mcu/drivers/unified_api/src/sl_si91x_dma.o
 .text          0x00000000        0x0 ./wiseconnect3_sdk_3.3.0/components/device/silabs/si91x/mcu/drivers/unified_api/src/sl_si91x_gspi.o
 .data          0x00000000        0x0 ./wiseconnect3_sdk_3.3.0/components/device/silabs/si91x/mcu/drivers/unified_api/src/sl_si91x_gspi.o
 .bss           0x00000000        0x0 ./wiseconnect3_sdk_3.3.0/components/device/silabs/si91x/mcu/drivers/unified_api/src/sl_si91x_gspi.o
 .text.sl_si91x_gspi_set_master_state
                0x00000000       0x44 ./wiseconnect3_sdk_3.3.0/components/device/silabs/si91x/mcu/drivers/unified_api/src/sl_si91x_gspi.o
 .text.sl_si91x_gspi_unregister_event_callback
                0x00000000       0x14 ./wiseconnect3_sdk_3.3.0/components/device/silabs/si91x/mcu/drivers/unified_api/src/sl_si91x_gspi.o
 .text.sl_si91x_gspi_deinit
                0x00000000       0x28 ./wiseconnect3_sdk_3.3.0/components/device/silabs/si91x/mcu/drivers/unified_api/src/sl_si91x_gspi.o
 .text.sl_si91x_gspi_get_rx_data_count
                0x00000000        0x4 ./wiseconnect3_sdk_3.3.0/components/device/silabs/si91x/mcu/drivers/unified_api/src/sl_si91x_gspi.o
 .text.sl_si91x_gspi_get_tx_data_count
                0x00000000        0x4 ./wiseconnect3_sdk_3.3.0/components/device/silabs/si91x/mcu/drivers/unified_api/src/sl_si91x_gspi.o
 .data.gspi_configuration
                0x00000000       0x10 ./wiseconnect3_sdk_3.3.0/components/device/silabs/si91x/mcu/drivers/unified_api/src/sl_si91x_gspi.o
 .text          0x00000000        0x0 ./wiseconnect3_sdk_3.3.0/components/device/silabs/si91x/mcu/drivers/unified_api/src/sl_si91x_ulp_timer.o
 .data          0x00000000        0x0 ./wiseconnect3_sdk_3.3.0/components/device/silabs/si91x/mcu/drivers/unified_api/src/sl_si91x_ulp_timer.o
 .bss           0x00000000        0x0 ./wiseconnect3_sdk_3.3.0/components/device/silabs/si91x/mcu/drivers/unified_api/src/sl_si91x_ulp_timer.o
 .text.get_int_frac_parts
                0x00000000       0x78 ./wiseconnect3_sdk_3.3.0/components/device/silabs/si91x/mcu/drivers/unified_api/src/sl_si91x_ulp_timer.o
 .text.sl_si91x_ulp_timer_configure_clock
                0x00000000       0x3c ./wiseconnect3_sdk_3.3.0/components/device/silabs/si91x/mcu/drivers/unified_api/src/sl_si91x_ulp_timer.o
 .text.sl_si91x_ulp_timer_set_configuration
                0x00000000       0xf0 ./wiseconnect3_sdk_3.3.0/components/device/silabs/si91x/mcu/drivers/unified_api/src/sl_si91x_ulp_timer.o
 .text.sl_si91x_ulp_timer_start
                0x00000000       0x1e ./wiseconnect3_sdk_3.3.0/components/device/silabs/si91x/mcu/drivers/unified_api/src/sl_si91x_ulp_timer.o
 .text.sl_si91x_ulp_timer_stop
                0x00000000       0x1e ./wiseconnect3_sdk_3.3.0/components/device/silabs/si91x/mcu/drivers/unified_api/src/sl_si91x_ulp_timer.o
 .text.sl_si91x_ulp_timer_restart
                0x00000000       0x1c ./wiseconnect3_sdk_3.3.0/components/device/silabs/si91x/mcu/drivers/unified_api/src/sl_si91x_ulp_timer.o
 .text.sl_si91x_ulp_timer_set_mode
                0x00000000       0x26 ./wiseconnect3_sdk_3.3.0/components/device/silabs/si91x/mcu/drivers/unified_api/src/sl_si91x_ulp_timer.o
 .text.sl_si91x_ulp_timer_get_mode
                0x00000000       0x24 ./wiseconnect3_sdk_3.3.0/components/device/silabs/si91x/mcu/drivers/unified_api/src/sl_si91x_ulp_timer.o
 .text.sl_si91x_ulp_timer_set_direction
                0x00000000       0x30 ./wiseconnect3_sdk_3.3.0/components/device/silabs/si91x/mcu/drivers/unified_api/src/sl_si91x_ulp_timer.o
 .text.sl_si91x_ulp_timer_get_direction
                0x00000000       0x24 ./wiseconnect3_sdk_3.3.0/components/device/silabs/si91x/mcu/drivers/unified_api/src/sl_si91x_ulp_timer.o
 .text.sl_si91x_ulp_timer_set_type
                0x00000000       0x70 ./wiseconnect3_sdk_3.3.0/components/device/silabs/si91x/mcu/drivers/unified_api/src/sl_si91x_ulp_timer.o
 .text.sl_si91x_ulp_timer_get_type
                0x00000000       0x24 ./wiseconnect3_sdk_3.3.0/components/device/silabs/si91x/mcu/drivers/unified_api/src/sl_si91x_ulp_timer.o
 .text.sl_si91x_ulp_timer_get_count
                0x00000000       0x20 ./wiseconnect3_sdk_3.3.0/components/device/silabs/si91x/mcu/drivers/unified_api/src/sl_si91x_ulp_timer.o
 .text.sl_si91x_ulp_timer_set_count
                0x00000000       0x14 ./wiseconnect3_sdk_3.3.0/components/device/silabs/si91x/mcu/drivers/unified_api/src/sl_si91x_ulp_timer.o
 .text.sl_si91x_ulp_timer_register_timeout_callback
                0x00000000       0x44 ./wiseconnect3_sdk_3.3.0/components/device/silabs/si91x/mcu/drivers/unified_api/src/sl_si91x_ulp_timer.o
 .text.sl_si91x_ulp_timer_unregister_timeout_callback
                0x00000000       0x38 ./wiseconnect3_sdk_3.3.0/components/device/silabs/si91x/mcu/drivers/unified_api/src/sl_si91x_ulp_timer.o
 .text.sl_si91x_ulp_timer_configure_xtal_clock
                0x00000000       0x1c ./wiseconnect3_sdk_3.3.0/components/device/silabs/si91x/mcu/drivers/unified_api/src/sl_si91x_ulp_timer.o
 .text.sl_si91x_ulp_timer_configure_soc_clock
                0x00000000       0x30 ./wiseconnect3_sdk_3.3.0/components/device/silabs/si91x/mcu/drivers/unified_api/src/sl_si91x_ulp_timer.o
 .text.sl_si91x_ulp_timer_init
                0x00000000        0x4 ./wiseconnect3_sdk_3.3.0/components/device/silabs/si91x/mcu/drivers/unified_api/src/sl_si91x_ulp_timer.o
 .text.sl_si91x_ulp_timer_deinit
                0x00000000       0x28 ./wiseconnect3_sdk_3.3.0/components/device/silabs/si91x/mcu/drivers/unified_api/src/sl_si91x_ulp_timer.o
 .text.sl_si91x_ulp_timer_get_version
                0x00000000       0x16 ./wiseconnect3_sdk_3.3.0/components/device/silabs/si91x/mcu/drivers/unified_api/src/sl_si91x_ulp_timer.o
 .rodata.ulp_timer_irq_numbers
                0x00000000        0x4 ./wiseconnect3_sdk_3.3.0/components/device/silabs/si91x/mcu/drivers/unified_api/src/sl_si91x_ulp_timer.o
 .data          0x00000000        0x0 c:/siliconlabs/simplicitystudio/v5/developer/toolchains/gnu_arm/12.2.rel1_2023.7/bin/../lib/gcc/arm-none-eabi/12.2.1/thumb/v7e-m+fp/softfp\libgcc.a(_arm_addsubdf3.o)
 .bss           0x00000000        0x0 c:/siliconlabs/simplicitystudio/v5/developer/toolchains/gnu_arm/12.2.rel1_2023.7/bin/../lib/gcc/arm-none-eabi/12.2.1/thumb/v7e-m+fp/softfp\libgcc.a(_arm_addsubdf3.o)
 .data          0x00000000        0x0 c:/siliconlabs/simplicitystudio/v5/developer/toolchains/gnu_arm/12.2.rel1_2023.7/bin/../lib/gcc/arm-none-eabi/12.2.1/thumb/v7e-m+fp/softfp\libgcc.a(_arm_muldivdf3.o)
 .bss           0x00000000        0x0 c:/siliconlabs/simplicitystudio/v5/developer/toolchains/gnu_arm/12.2.rel1_2023.7/bin/../lib/gcc/arm-none-eabi/12.2.1/thumb/v7e-m+fp/softfp\libgcc.a(_arm_muldivdf3.o)
 .data          0x00000000        0x0 c:/siliconlabs/simplicitystudio/v5/developer/toolchains/gnu_arm/12.2.rel1_2023.7/bin/../lib/gcc/arm-none-eabi/12.2.1/thumb/v7e-m+fp/softfp\libgcc.a(_arm_fixunsdfsi.o)
 .bss           0x00000000        0x0 c:/siliconlabs/simplicitystudio/v5/developer/toolchains/gnu_arm/12.2.rel1_2023.7/bin/../lib/gcc/arm-none-eabi/12.2.1/thumb/v7e-m+fp/softfp\libgcc.a(_arm_fixunsdfsi.o)
 .text          0x00000000        0x0 c:/siliconlabs/simplicitystudio/v5/developer/toolchains/gnu_arm/12.2.rel1_2023.7/bin/../lib/gcc/arm-none-eabi/12.2.1/thumb/v7e-m+fp/softfp\libc_nano.a(libc_a-exit.o)
 .data          0x00000000        0x0 c:/siliconlabs/simplicitystudio/v5/developer/toolchains/gnu_arm/12.2.rel1_2023.7/bin/../lib/gcc/arm-none-eabi/12.2.1/thumb/v7e-m+fp/softfp\libc_nano.a(libc_a-exit.o)
 .bss           0x00000000        0x0 c:/siliconlabs/simplicitystudio/v5/developer/toolchains/gnu_arm/12.2.rel1_2023.7/bin/../lib/gcc/arm-none-eabi/12.2.1/thumb/v7e-m+fp/softfp\libc_nano.a(libc_a-exit.o)
 .text.exit     0x00000000       0x24 c:/siliconlabs/simplicitystudio/v5/developer/toolchains/gnu_arm/12.2.rel1_2023.7/bin/../lib/gcc/arm-none-eabi/12.2.1/thumb/v7e-m+fp/softfp\libc_nano.a(libc_a-exit.o)
 .debug_frame   0x00000000       0x28 c:/siliconlabs/simplicitystudio/v5/developer/toolchains/gnu_arm/12.2.rel1_2023.7/bin/../lib/gcc/arm-none-eabi/12.2.1/thumb/v7e-m+fp/softfp\libc_nano.a(libc_a-exit.o)
 .ARM.attributes
                0x00000000       0x32 c:/siliconlabs/simplicitystudio/v5/developer/toolchains/gnu_arm/12.2.rel1_2023.7/bin/../lib/gcc/arm-none-eabi/12.2.1/thumb/v7e-m+fp/softfp\libc_nano.a(libc_a-exit.o)
 .text          0x00000000        0x0 c:/siliconlabs/simplicitystudio/v5/developer/toolchains/gnu_arm/12.2.rel1_2023.7/bin/../lib/gcc/arm-none-eabi/12.2.1/thumb/v7e-m+fp/softfp\libc_nano.a(libc_a-nano-vfprintf_float.o)
 .data          0x00000000        0x0 c:/siliconlabs/simplicitystudio/v5/developer/toolchains/gnu_arm/12.2.rel1_2023.7/bin/../lib/gcc/arm-none-eabi/12.2.1/thumb/v7e-m+fp/softfp\libc_nano.a(libc_a-nano-vfprintf_float.o)
 .bss           0x00000000        0x0 c:/siliconlabs/simplicitystudio/v5/developer/toolchains/gnu_arm/12.2.rel1_2023.7/bin/../lib/gcc/arm-none-eabi/12.2.1/thumb/v7e-m+fp/softfp\libc_nano.a(libc_a-nano-vfprintf_float.o)
 .text          0x00000000        0x0 c:/siliconlabs/simplicitystudio/v5/developer/toolchains/gnu_arm/12.2.rel1_2023.7/bin/../lib/gcc/arm-none-eabi/12.2.1/thumb/v7e-m+fp/softfp\libc_nano.a(libc_a-nano-vfprintf_i.o)
 .data          0x00000000        0x0 c:/siliconlabs/simplicitystudio/v5/developer/toolchains/gnu_arm/12.2.rel1_2023.7/bin/../lib/gcc/arm-none-eabi/12.2.1/thumb/v7e-m+fp/softfp\libc_nano.a(libc_a-nano-vfprintf_i.o)
 .bss           0x00000000        0x0 c:/siliconlabs/simplicitystudio/v5/developer/toolchains/gnu_arm/12.2.rel1_2023.7/bin/../lib/gcc/arm-none-eabi/12.2.1/thumb/v7e-m+fp/softfp\libc_nano.a(libc_a-nano-vfprintf_i.o)
 .text          0x00000000        0x0 c:/siliconlabs/simplicitystudio/v5/developer/toolchains/gnu_arm/12.2.rel1_2023.7/bin/../lib/gcc/arm-none-eabi/12.2.1/thumb/v7e-m+fp/softfp\libc_nano.a(libc_a-findfp.o)
 .data          0x00000000        0x0 c:/siliconlabs/simplicitystudio/v5/developer/toolchains/gnu_arm/12.2.rel1_2023.7/bin/../lib/gcc/arm-none-eabi/12.2.1/thumb/v7e-m+fp/softfp\libc_nano.a(libc_a-findfp.o)
 .bss           0x00000000        0x0 c:/siliconlabs/simplicitystudio/v5/developer/toolchains/gnu_arm/12.2.rel1_2023.7/bin/../lib/gcc/arm-none-eabi/12.2.1/thumb/v7e-m+fp/softfp\libc_nano.a(libc_a-findfp.o)
 .text.__fp_lock
                0x00000000       0x18 c:/siliconlabs/simplicitystudio/v5/developer/toolchains/gnu_arm/12.2.rel1_2023.7/bin/../lib/gcc/arm-none-eabi/12.2.1/thumb/v7e-m+fp/softfp\libc_nano.a(libc_a-findfp.o)
 .text.__fp_unlock
                0x00000000       0x18 c:/siliconlabs/simplicitystudio/v5/developer/toolchains/gnu_arm/12.2.rel1_2023.7/bin/../lib/gcc/arm-none-eabi/12.2.1/thumb/v7e-m+fp/softfp\libc_nano.a(libc_a-findfp.o)
 .text.__sfp    0x00000000       0xa4 c:/siliconlabs/simplicitystudio/v5/developer/toolchains/gnu_arm/12.2.rel1_2023.7/bin/../lib/gcc/arm-none-eabi/12.2.1/thumb/v7e-m+fp/softfp\libc_nano.a(libc_a-findfp.o)
 .text.__fp_lock_all
                0x00000000       0x1c c:/siliconlabs/simplicitystudio/v5/developer/toolchains/gnu_arm/12.2.rel1_2023.7/bin/../lib/gcc/arm-none-eabi/12.2.1/thumb/v7e-m+fp/softfp\libc_nano.a(libc_a-findfp.o)
 .text.__fp_unlock_all
                0x00000000       0x1c c:/siliconlabs/simplicitystudio/v5/developer/toolchains/gnu_arm/12.2.rel1_2023.7/bin/../lib/gcc/arm-none-eabi/12.2.1/thumb/v7e-m+fp/softfp\libc_nano.a(libc_a-findfp.o)
 .text          0x00000000        0x0 c:/siliconlabs/simplicitystudio/v5/developer/toolchains/gnu_arm/12.2.rel1_2023.7/bin/../lib/gcc/arm-none-eabi/12.2.1/thumb/v7e-m+fp/softfp\libc_nano.a(libc_a-fwalk.o)
 .data          0x00000000        0x0 c:/siliconlabs/simplicitystudio/v5/developer/toolchains/gnu_arm/12.2.rel1_2023.7/bin/../lib/gcc/arm-none-eabi/12.2.1/thumb/v7e-m+fp/softfp\libc_nano.a(libc_a-fwalk.o)
 .bss           0x00000000        0x0 c:/siliconlabs/simplicitystudio/v5/developer/toolchains/gnu_arm/12.2.rel1_2023.7/bin/../lib/gcc/arm-none-eabi/12.2.1/thumb/v7e-m+fp/softfp\libc_nano.a(libc_a-fwalk.o)
 .text          0x00000000        0x0 c:/siliconlabs/simplicitystudio/v5/developer/toolchains/gnu_arm/12.2.rel1_2023.7/bin/../lib/gcc/arm-none-eabi/12.2.1/thumb/v7e-m+fp/softfp\libc_nano.a(libc_a-printf.o)
 .data          0x00000000        0x0 c:/siliconlabs/simplicitystudio/v5/developer/toolchains/gnu_arm/12.2.rel1_2023.7/bin/../lib/gcc/arm-none-eabi/12.2.1/thumb/v7e-m+fp/softfp\libc_nano.a(libc_a-printf.o)
 .bss           0x00000000        0x0 c:/siliconlabs/simplicitystudio/v5/developer/toolchains/gnu_arm/12.2.rel1_2023.7/bin/../lib/gcc/arm-none-eabi/12.2.1/thumb/v7e-m+fp/softfp\libc_nano.a(libc_a-printf.o)
 .text._printf_r
                0x00000000       0x1c c:/siliconlabs/simplicitystudio/v5/developer/toolchains/gnu_arm/12.2.rel1_2023.7/bin/../lib/gcc/arm-none-eabi/12.2.1/thumb/v7e-m+fp/softfp\libc_nano.a(libc_a-printf.o)
 .text          0x00000000        0x0 c:/siliconlabs/simplicitystudio/v5/developer/toolchains/gnu_arm/12.2.rel1_2023.7/bin/../lib/gcc/arm-none-eabi/12.2.1/thumb/v7e-m+fp/softfp\libc_nano.a(libc_a-puts.o)
 .data          0x00000000        0x0 c:/siliconlabs/simplicitystudio/v5/developer/toolchains/gnu_arm/12.2.rel1_2023.7/bin/../lib/gcc/arm-none-eabi/12.2.1/thumb/v7e-m+fp/softfp\libc_nano.a(libc_a-puts.o)
 .bss           0x00000000        0x0 c:/siliconlabs/simplicitystudio/v5/developer/toolchains/gnu_arm/12.2.rel1_2023.7/bin/../lib/gcc/arm-none-eabi/12.2.1/thumb/v7e-m+fp/softfp\libc_nano.a(libc_a-puts.o)
 .text          0x00000000        0x0 c:/siliconlabs/simplicitystudio/v5/developer/toolchains/gnu_arm/12.2.rel1_2023.7/bin/../lib/gcc/arm-none-eabi/12.2.1/thumb/v7e-m+fp/softfp\libc_nano.a(libc_a-stdio.o)
 .data          0x00000000        0x0 c:/siliconlabs/simplicitystudio/v5/developer/toolchains/gnu_arm/12.2.rel1_2023.7/bin/../lib/gcc/arm-none-eabi/12.2.1/thumb/v7e-m+fp/softfp\libc_nano.a(libc_a-stdio.o)
 .bss           0x00000000        0x0 c:/siliconlabs/simplicitystudio/v5/developer/toolchains/gnu_arm/12.2.rel1_2023.7/bin/../lib/gcc/arm-none-eabi/12.2.1/thumb/v7e-m+fp/softfp\libc_nano.a(libc_a-stdio.o)
 .text.__seofread
                0x00000000        0x4 c:/siliconlabs/simplicitystudio/v5/developer/toolchains/gnu_arm/12.2.rel1_2023.7/bin/../lib/gcc/arm-none-eabi/12.2.1/thumb/v7e-m+fp/softfp\libc_nano.a(libc_a-stdio.o)
 .text          0x00000000        0x0 c:/siliconlabs/simplicitystudio/v5/developer/toolchains/gnu_arm/12.2.rel1_2023.7/bin/../lib/gcc/arm-none-eabi/12.2.1/thumb/v7e-m+fp/softfp\libc_nano.a(libc_a-wbuf.o)
 .data          0x00000000        0x0 c:/siliconlabs/simplicitystudio/v5/developer/toolchains/gnu_arm/12.2.rel1_2023.7/bin/../lib/gcc/arm-none-eabi/12.2.1/thumb/v7e-m+fp/softfp\libc_nano.a(libc_a-wbuf.o)
 .bss           0x00000000        0x0 c:/siliconlabs/simplicitystudio/v5/developer/toolchains/gnu_arm/12.2.rel1_2023.7/bin/../lib/gcc/arm-none-eabi/12.2.1/thumb/v7e-m+fp/softfp\libc_nano.a(libc_a-wbuf.o)
 .text.__swbuf  0x00000000       0x10 c:/siliconlabs/simplicitystudio/v5/developer/toolchains/gnu_arm/12.2.rel1_2023.7/bin/../lib/gcc/arm-none-eabi/12.2.1/thumb/v7e-m+fp/softfp\libc_nano.a(libc_a-wbuf.o)
 .text          0x00000000        0x0 c:/siliconlabs/simplicitystudio/v5/developer/toolchains/gnu_arm/12.2.rel1_2023.7/bin/../lib/gcc/arm-none-eabi/12.2.1/thumb/v7e-m+fp/softfp\libc_nano.a(libc_a-wsetup.o)
 .data          0x00000000        0x0 c:/siliconlabs/simplicitystudio/v5/developer/toolchains/gnu_arm/12.2.rel1_2023.7/bin/../lib/gcc/arm-none-eabi/12.2.1/thumb/v7e-m+fp/softfp\libc_nano.a(libc_a-wsetup.o)
 .bss           0x00000000        0x0 c:/siliconlabs/simplicitystudio/v5/developer/toolchains/gnu_arm/12.2.rel1_2023.7/bin/../lib/gcc/arm-none-eabi/12.2.1/thumb/v7e-m+fp/softfp\libc_nano.a(libc_a-wsetup.o)
 .text          0x00000000        0x0 c:/siliconlabs/simplicitystudio/v5/developer/toolchains/gnu_arm/12.2.rel1_2023.7/bin/../lib/gcc/arm-none-eabi/12.2.1/thumb/v7e-m+fp/softfp\libc_nano.a(libc_a-memset.o)
 .data          0x00000000        0x0 c:/siliconlabs/simplicitystudio/v5/developer/toolchains/gnu_arm/12.2.rel1_2023.7/bin/../lib/gcc/arm-none-eabi/12.2.1/thumb/v7e-m+fp/softfp\libc_nano.a(libc_a-memset.o)
 .bss           0x00000000        0x0 c:/siliconlabs/simplicitystudio/v5/developer/toolchains/gnu_arm/12.2.rel1_2023.7/bin/../lib/gcc/arm-none-eabi/12.2.1/thumb/v7e-m+fp/softfp\libc_nano.a(libc_a-memset.o)
 .text          0x00000000        0x0 c:/siliconlabs/simplicitystudio/v5/developer/toolchains/gnu_arm/12.2.rel1_2023.7/bin/../lib/gcc/arm-none-eabi/12.2.1/thumb/v7e-m+fp/softfp\libc_nano.a(libc_a-localeconv.o)
 .data          0x00000000        0x0 c:/siliconlabs/simplicitystudio/v5/developer/toolchains/gnu_arm/12.2.rel1_2023.7/bin/../lib/gcc/arm-none-eabi/12.2.1/thumb/v7e-m+fp/softfp\libc_nano.a(libc_a-localeconv.o)
 .bss           0x00000000        0x0 c:/siliconlabs/simplicitystudio/v5/developer/toolchains/gnu_arm/12.2.rel1_2023.7/bin/../lib/gcc/arm-none-eabi/12.2.1/thumb/v7e-m+fp/softfp\libc_nano.a(libc_a-localeconv.o)
 .text.__localeconv_l
                0x00000000        0x4 c:/siliconlabs/simplicitystudio/v5/developer/toolchains/gnu_arm/12.2.rel1_2023.7/bin/../lib/gcc/arm-none-eabi/12.2.1/thumb/v7e-m+fp/softfp\libc_nano.a(libc_a-localeconv.o)
 .text.localeconv
                0x00000000        0x8 c:/siliconlabs/simplicitystudio/v5/developer/toolchains/gnu_arm/12.2.rel1_2023.7/bin/../lib/gcc/arm-none-eabi/12.2.1/thumb/v7e-m+fp/softfp\libc_nano.a(libc_a-localeconv.o)
 .text          0x00000000        0x0 c:/siliconlabs/simplicitystudio/v5/developer/toolchains/gnu_arm/12.2.rel1_2023.7/bin/../lib/gcc/arm-none-eabi/12.2.1/thumb/v7e-m+fp/softfp\libc_nano.a(libc_a-closer.o)
 .data          0x00000000        0x0 c:/siliconlabs/simplicitystudio/v5/developer/toolchains/gnu_arm/12.2.rel1_2023.7/bin/../lib/gcc/arm-none-eabi/12.2.1/thumb/v7e-m+fp/softfp\libc_nano.a(libc_a-closer.o)
 .bss           0x00000000        0x0 c:/siliconlabs/simplicitystudio/v5/developer/toolchains/gnu_arm/12.2.rel1_2023.7/bin/../lib/gcc/arm-none-eabi/12.2.1/thumb/v7e-m+fp/softfp\libc_nano.a(libc_a-closer.o)
 .text          0x00000000        0x0 c:/siliconlabs/simplicitystudio/v5/developer/toolchains/gnu_arm/12.2.rel1_2023.7/bin/../lib/gcc/arm-none-eabi/12.2.1/thumb/v7e-m+fp/softfp\libc_nano.a(libc_a-reent.o)
 .data          0x00000000        0x0 c:/siliconlabs/simplicitystudio/v5/developer/toolchains/gnu_arm/12.2.rel1_2023.7/bin/../lib/gcc/arm-none-eabi/12.2.1/thumb/v7e-m+fp/softfp\libc_nano.a(libc_a-reent.o)
 .bss           0x00000000        0x0 c:/siliconlabs/simplicitystudio/v5/developer/toolchains/gnu_arm/12.2.rel1_2023.7/bin/../lib/gcc/arm-none-eabi/12.2.1/thumb/v7e-m+fp/softfp\libc_nano.a(libc_a-reent.o)
 .text._reclaim_reent
                0x00000000       0xac c:/siliconlabs/simplicitystudio/v5/developer/toolchains/gnu_arm/12.2.rel1_2023.7/bin/../lib/gcc/arm-none-eabi/12.2.1/thumb/v7e-m+fp/softfp\libc_nano.a(libc_a-reent.o)
 .text          0x00000000        0x0 c:/siliconlabs/simplicitystudio/v5/developer/toolchains/gnu_arm/12.2.rel1_2023.7/bin/../lib/gcc/arm-none-eabi/12.2.1/thumb/v7e-m+fp/softfp\libc_nano.a(libc_a-impure.o)
 .data          0x00000000        0x0 c:/siliconlabs/simplicitystudio/v5/developer/toolchains/gnu_arm/12.2.rel1_2023.7/bin/../lib/gcc/arm-none-eabi/12.2.1/thumb/v7e-m+fp/softfp\libc_nano.a(libc_a-impure.o)
 .bss           0x00000000        0x0 c:/siliconlabs/simplicitystudio/v5/developer/toolchains/gnu_arm/12.2.rel1_2023.7/bin/../lib/gcc/arm-none-eabi/12.2.1/thumb/v7e-m+fp/softfp\libc_nano.a(libc_a-impure.o)
 .text          0x00000000        0x0 c:/siliconlabs/simplicitystudio/v5/developer/toolchains/gnu_arm/12.2.rel1_2023.7/bin/../lib/gcc/arm-none-eabi/12.2.1/thumb/v7e-m+fp/softfp\libc_nano.a(libc_a-lseekr.o)
 .data          0x00000000        0x0 c:/siliconlabs/simplicitystudio/v5/developer/toolchains/gnu_arm/12.2.rel1_2023.7/bin/../lib/gcc/arm-none-eabi/12.2.1/thumb/v7e-m+fp/softfp\libc_nano.a(libc_a-lseekr.o)
 .bss           0x00000000        0x0 c:/siliconlabs/simplicitystudio/v5/developer/toolchains/gnu_arm/12.2.rel1_2023.7/bin/../lib/gcc/arm-none-eabi/12.2.1/thumb/v7e-m+fp/softfp\libc_nano.a(libc_a-lseekr.o)
 .text          0x00000000        0x0 c:/siliconlabs/simplicitystudio/v5/developer/toolchains/gnu_arm/12.2.rel1_2023.7/bin/../lib/gcc/arm-none-eabi/12.2.1/thumb/v7e-m+fp/softfp\libc_nano.a(libc_a-readr.o)
 .data          0x00000000        0x0 c:/siliconlabs/simplicitystudio/v5/developer/toolchains/gnu_arm/12.2.rel1_2023.7/bin/../lib/gcc/arm-none-eabi/12.2.1/thumb/v7e-m+fp/softfp\libc_nano.a(libc_a-readr.o)
 .bss           0x00000000        0x0 c:/siliconlabs/simplicitystudio/v5/developer/toolchains/gnu_arm/12.2.rel1_2023.7/bin/../lib/gcc/arm-none-eabi/12.2.1/thumb/v7e-m+fp/softfp\libc_nano.a(libc_a-readr.o)
 .text          0x00000000        0x0 c:/siliconlabs/simplicitystudio/v5/developer/toolchains/gnu_arm/12.2.rel1_2023.7/bin/../lib/gcc/arm-none-eabi/12.2.1/thumb/v7e-m+fp/softfp\libc_nano.a(libc_a-writer.o)
 .data          0x00000000        0x0 c:/siliconlabs/simplicitystudio/v5/developer/toolchains/gnu_arm/12.2.rel1_2023.7/bin/../lib/gcc/arm-none-eabi/12.2.1/thumb/v7e-m+fp/softfp\libc_nano.a(libc_a-writer.o)
 .bss           0x00000000        0x0 c:/siliconlabs/simplicitystudio/v5/developer/toolchains/gnu_arm/12.2.rel1_2023.7/bin/../lib/gcc/arm-none-eabi/12.2.1/thumb/v7e-m+fp/softfp\libc_nano.a(libc_a-writer.o)
 .text          0x00000000        0x0 c:/siliconlabs/simplicitystudio/v5/developer/toolchains/gnu_arm/12.2.rel1_2023.7/bin/../lib/gcc/arm-none-eabi/12.2.1/thumb/v7e-m+fp/softfp\libc_nano.a(libc_a-errno.o)
 .data          0x00000000        0x0 c:/siliconlabs/simplicitystudio/v5/developer/toolchains/gnu_arm/12.2.rel1_2023.7/bin/../lib/gcc/arm-none-eabi/12.2.1/thumb/v7e-m+fp/softfp\libc_nano.a(libc_a-errno.o)
 .bss           0x00000000        0x0 c:/siliconlabs/simplicitystudio/v5/developer/toolchains/gnu_arm/12.2.rel1_2023.7/bin/../lib/gcc/arm-none-eabi/12.2.1/thumb/v7e-m+fp/softfp\libc_nano.a(libc_a-errno.o)
 .text          0x00000000        0x0 c:/siliconlabs/simplicitystudio/v5/developer/toolchains/gnu_arm/12.2.rel1_2023.7/bin/../lib/gcc/arm-none-eabi/12.2.1/thumb/v7e-m+fp/softfp\libc_nano.a(libc_a-init.o)
 .data          0x00000000        0x0 c:/siliconlabs/simplicitystudio/v5/developer/toolchains/gnu_arm/12.2.rel1_2023.7/bin/../lib/gcc/arm-none-eabi/12.2.1/thumb/v7e-m+fp/softfp\libc_nano.a(libc_a-init.o)
 .bss           0x00000000        0x0 c:/siliconlabs/simplicitystudio/v5/developer/toolchains/gnu_arm/12.2.rel1_2023.7/bin/../lib/gcc/arm-none-eabi/12.2.1/thumb/v7e-m+fp/softfp\libc_nano.a(libc_a-init.o)
 .text.__libc_init_array
                0x00000000       0x48 c:/siliconlabs/simplicitystudio/v5/developer/toolchains/gnu_arm/12.2.rel1_2023.7/bin/../lib/gcc/arm-none-eabi/12.2.1/thumb/v7e-m+fp/softfp\libc_nano.a(libc_a-init.o)
 .debug_frame   0x00000000       0x2c c:/siliconlabs/simplicitystudio/v5/developer/toolchains/gnu_arm/12.2.rel1_2023.7/bin/../lib/gcc/arm-none-eabi/12.2.1/thumb/v7e-m+fp/softfp\libc_nano.a(libc_a-init.o)
 .ARM.attributes
                0x00000000       0x32 c:/siliconlabs/simplicitystudio/v5/developer/toolchains/gnu_arm/12.2.rel1_2023.7/bin/../lib/gcc/arm-none-eabi/12.2.1/thumb/v7e-m+fp/softfp\libc_nano.a(libc_a-init.o)
 .text          0x00000000        0x0 c:/siliconlabs/simplicitystudio/v5/developer/toolchains/gnu_arm/12.2.rel1_2023.7/bin/../lib/gcc/arm-none-eabi/12.2.1/thumb/v7e-m+fp/softfp\libc_nano.a(libc_a-lock.o)
 .data          0x00000000        0x0 c:/siliconlabs/simplicitystudio/v5/developer/toolchains/gnu_arm/12.2.rel1_2023.7/bin/../lib/gcc/arm-none-eabi/12.2.1/thumb/v7e-m+fp/softfp\libc_nano.a(libc_a-lock.o)
 .bss           0x00000000        0x0 c:/siliconlabs/simplicitystudio/v5/developer/toolchains/gnu_arm/12.2.rel1_2023.7/bin/../lib/gcc/arm-none-eabi/12.2.1/thumb/v7e-m+fp/softfp\libc_nano.a(libc_a-lock.o)
 .text.__retarget_lock_init
                0x00000000        0x2 c:/siliconlabs/simplicitystudio/v5/developer/toolchains/gnu_arm/12.2.rel1_2023.7/bin/../lib/gcc/arm-none-eabi/12.2.1/thumb/v7e-m+fp/softfp\libc_nano.a(libc_a-lock.o)
 .text.__retarget_lock_close
                0x00000000        0x2 c:/siliconlabs/simplicitystudio/v5/developer/toolchains/gnu_arm/12.2.rel1_2023.7/bin/../lib/gcc/arm-none-eabi/12.2.1/thumb/v7e-m+fp/softfp\libc_nano.a(libc_a-lock.o)
 .text.__retarget_lock_close_recursive
                0x00000000        0x2 c:/siliconlabs/simplicitystudio/v5/developer/toolchains/gnu_arm/12.2.rel1_2023.7/bin/../lib/gcc/arm-none-eabi/12.2.1/thumb/v7e-m+fp/softfp\libc_nano.a(libc_a-lock.o)
 .text.__retarget_lock_acquire
                0x00000000        0x2 c:/siliconlabs/simplicitystudio/v5/developer/toolchains/gnu_arm/12.2.rel1_2023.7/bin/../lib/gcc/arm-none-eabi/12.2.1/thumb/v7e-m+fp/softfp\libc_nano.a(libc_a-lock.o)
 .text.__retarget_lock_try_acquire
                0x00000000        0x4 c:/siliconlabs/simplicitystudio/v5/developer/toolchains/gnu_arm/12.2.rel1_2023.7/bin/../lib/gcc/arm-none-eabi/12.2.1/thumb/v7e-m+fp/softfp\libc_nano.a(libc_a-lock.o)
 .text.__retarget_lock_try_acquire_recursive
                0x00000000        0x4 c:/siliconlabs/simplicitystudio/v5/developer/toolchains/gnu_arm/12.2.rel1_2023.7/bin/../lib/gcc/arm-none-eabi/12.2.1/thumb/v7e-m+fp/softfp\libc_nano.a(libc_a-lock.o)
 .text.__retarget_lock_release
                0x00000000        0x2 c:/siliconlabs/simplicitystudio/v5/developer/toolchains/gnu_arm/12.2.rel1_2023.7/bin/../lib/gcc/arm-none-eabi/12.2.1/thumb/v7e-m+fp/softfp\libc_nano.a(libc_a-lock.o)
 .bss.__lock___arc4random_mutex
                0x00000000        0x1 c:/siliconlabs/simplicitystudio/v5/developer/toolchains/gnu_arm/12.2.rel1_2023.7/bin/../lib/gcc/arm-none-eabi/12.2.1/thumb/v7e-m+fp/softfp\libc_nano.a(libc_a-lock.o)
 .bss.__lock___dd_hash_mutex
                0x00000000        0x1 c:/siliconlabs/simplicitystudio/v5/developer/toolchains/gnu_arm/12.2.rel1_2023.7/bin/../lib/gcc/arm-none-eabi/12.2.1/thumb/v7e-m+fp/softfp\libc_nano.a(libc_a-lock.o)
 .bss.__lock___tz_mutex
                0x00000000        0x1 c:/siliconlabs/simplicitystudio/v5/developer/toolchains/gnu_arm/12.2.rel1_2023.7/bin/../lib/gcc/arm-none-eabi/12.2.1/thumb/v7e-m+fp/softfp\libc_nano.a(libc_a-lock.o)
 .bss.__lock___env_recursive_mutex
                0x00000000        0x1 c:/siliconlabs/simplicitystudio/v5/developer/toolchains/gnu_arm/12.2.rel1_2023.7/bin/../lib/gcc/arm-none-eabi/12.2.1/thumb/v7e-m+fp/softfp\libc_nano.a(libc_a-lock.o)
 .bss.__lock___at_quick_exit_mutex
                0x00000000        0x1 c:/siliconlabs/simplicitystudio/v5/developer/toolchains/gnu_arm/12.2.rel1_2023.7/bin/../lib/gcc/arm-none-eabi/12.2.1/thumb/v7e-m+fp/softfp\libc_nano.a(libc_a-lock.o)
 .bss.__lock___atexit_recursive_mutex
                0x00000000        0x1 c:/siliconlabs/simplicitystudio/v5/developer/toolchains/gnu_arm/12.2.rel1_2023.7/bin/../lib/gcc/arm-none-eabi/12.2.1/thumb/v7e-m+fp/softfp\libc_nano.a(libc_a-lock.o)
 .data          0x00000000        0x0 c:/siliconlabs/simplicitystudio/v5/developer/toolchains/gnu_arm/12.2.rel1_2023.7/bin/../lib/gcc/arm-none-eabi/12.2.1/thumb/v7e-m+fp/softfp\libc_nano.a(libc_a-memchr.o)
 .bss           0x00000000        0x0 c:/siliconlabs/simplicitystudio/v5/developer/toolchains/gnu_arm/12.2.rel1_2023.7/bin/../lib/gcc/arm-none-eabi/12.2.1/thumb/v7e-m+fp/softfp\libc_nano.a(libc_a-memchr.o)
 .data          0x00000000        0x0 c:/siliconlabs/simplicitystudio/v5/developer/toolchains/gnu_arm/12.2.rel1_2023.7/bin/../lib/gcc/arm-none-eabi/12.2.1/thumb/v7e-m+fp/softfp\libc_nano.a(libc_a-strlen.o)
 .bss           0x00000000        0x0 c:/siliconlabs/simplicitystudio/v5/developer/toolchains/gnu_arm/12.2.rel1_2023.7/bin/../lib/gcc/arm-none-eabi/12.2.1/thumb/v7e-m+fp/softfp\libc_nano.a(libc_a-strlen.o)
 .text          0x00000000        0x0 c:/siliconlabs/simplicitystudio/v5/developer/toolchains/gnu_arm/12.2.rel1_2023.7/bin/../lib/gcc/arm-none-eabi/12.2.1/thumb/v7e-m+fp/softfp\libc_nano.a(libc_a-dtoa.o)
 .data          0x00000000        0x0 c:/siliconlabs/simplicitystudio/v5/developer/toolchains/gnu_arm/12.2.rel1_2023.7/bin/../lib/gcc/arm-none-eabi/12.2.1/thumb/v7e-m+fp/softfp\libc_nano.a(libc_a-dtoa.o)
 .bss           0x00000000        0x0 c:/siliconlabs/simplicitystudio/v5/developer/toolchains/gnu_arm/12.2.rel1_2023.7/bin/../lib/gcc/arm-none-eabi/12.2.1/thumb/v7e-m+fp/softfp\libc_nano.a(libc_a-dtoa.o)
 .text          0x00000000        0x0 c:/siliconlabs/simplicitystudio/v5/developer/toolchains/gnu_arm/12.2.rel1_2023.7/bin/../lib/gcc/arm-none-eabi/12.2.1/thumb/v7e-m+fp/softfp\libc_nano.a(libc_a-freer.o)
 .data          0x00000000        0x0 c:/siliconlabs/simplicitystudio/v5/developer/toolchains/gnu_arm/12.2.rel1_2023.7/bin/../lib/gcc/arm-none-eabi/12.2.1/thumb/v7e-m+fp/softfp\libc_nano.a(libc_a-freer.o)
 .bss           0x00000000        0x0 c:/siliconlabs/simplicitystudio/v5/developer/toolchains/gnu_arm/12.2.rel1_2023.7/bin/../lib/gcc/arm-none-eabi/12.2.1/thumb/v7e-m+fp/softfp\libc_nano.a(libc_a-freer.o)
 .text          0x00000000        0x0 c:/siliconlabs/simplicitystudio/v5/developer/toolchains/gnu_arm/12.2.rel1_2023.7/bin/../lib/gcc/arm-none-eabi/12.2.1/thumb/v7e-m+fp/softfp\libc_nano.a(libc_a-malloc.o)
 .data          0x00000000        0x0 c:/siliconlabs/simplicitystudio/v5/developer/toolchains/gnu_arm/12.2.rel1_2023.7/bin/../lib/gcc/arm-none-eabi/12.2.1/thumb/v7e-m+fp/softfp\libc_nano.a(libc_a-malloc.o)
 .bss           0x00000000        0x0 c:/siliconlabs/simplicitystudio/v5/developer/toolchains/gnu_arm/12.2.rel1_2023.7/bin/../lib/gcc/arm-none-eabi/12.2.1/thumb/v7e-m+fp/softfp\libc_nano.a(libc_a-malloc.o)
 .text.free     0x00000000       0x10 c:/siliconlabs/simplicitystudio/v5/developer/toolchains/gnu_arm/12.2.rel1_2023.7/bin/../lib/gcc/arm-none-eabi/12.2.1/thumb/v7e-m+fp/softfp\libc_nano.a(libc_a-malloc.o)
 .text          0x00000000        0x0 c:/siliconlabs/simplicitystudio/v5/developer/toolchains/gnu_arm/12.2.rel1_2023.7/bin/../lib/gcc/arm-none-eabi/12.2.1/thumb/v7e-m+fp/softfp\libc_nano.a(libc_a-mallocr.o)
 .data          0x00000000        0x0 c:/siliconlabs/simplicitystudio/v5/developer/toolchains/gnu_arm/12.2.rel1_2023.7/bin/../lib/gcc/arm-none-eabi/12.2.1/thumb/v7e-m+fp/softfp\libc_nano.a(libc_a-mallocr.o)
 .bss           0x00000000        0x0 c:/siliconlabs/simplicitystudio/v5/developer/toolchains/gnu_arm/12.2.rel1_2023.7/bin/../lib/gcc/arm-none-eabi/12.2.1/thumb/v7e-m+fp/softfp\libc_nano.a(libc_a-mallocr.o)
 .text          0x00000000        0x0 c:/siliconlabs/simplicitystudio/v5/developer/toolchains/gnu_arm/12.2.rel1_2023.7/bin/../lib/gcc/arm-none-eabi/12.2.1/thumb/v7e-m+fp/softfp\libc_nano.a(libc_a-mlock.o)
 .data          0x00000000        0x0 c:/siliconlabs/simplicitystudio/v5/developer/toolchains/gnu_arm/12.2.rel1_2023.7/bin/../lib/gcc/arm-none-eabi/12.2.1/thumb/v7e-m+fp/softfp\libc_nano.a(libc_a-mlock.o)
 .bss           0x00000000        0x0 c:/siliconlabs/simplicitystudio/v5/developer/toolchains/gnu_arm/12.2.rel1_2023.7/bin/../lib/gcc/arm-none-eabi/12.2.1/thumb/v7e-m+fp/softfp\libc_nano.a(libc_a-mlock.o)
 .text          0x00000000        0x0 c:/siliconlabs/simplicitystudio/v5/developer/toolchains/gnu_arm/12.2.rel1_2023.7/bin/../lib/gcc/arm-none-eabi/12.2.1/thumb/v7e-m+fp/softfp\libc_nano.a(libc_a-mprec.o)
 .data          0x00000000        0x0 c:/siliconlabs/simplicitystudio/v5/developer/toolchains/gnu_arm/12.2.rel1_2023.7/bin/../lib/gcc/arm-none-eabi/12.2.1/thumb/v7e-m+fp/softfp\libc_nano.a(libc_a-mprec.o)
 .bss           0x00000000        0x0 c:/siliconlabs/simplicitystudio/v5/developer/toolchains/gnu_arm/12.2.rel1_2023.7/bin/../lib/gcc/arm-none-eabi/12.2.1/thumb/v7e-m+fp/softfp\libc_nano.a(libc_a-mprec.o)
 .text.__s2b    0x00000000       0x94 c:/siliconlabs/simplicitystudio/v5/developer/toolchains/gnu_arm/12.2.rel1_2023.7/bin/../lib/gcc/arm-none-eabi/12.2.1/thumb/v7e-m+fp/softfp\libc_nano.a(libc_a-mprec.o)
 .text.__ulp    0x00000000       0x40 c:/siliconlabs/simplicitystudio/v5/developer/toolchains/gnu_arm/12.2.rel1_2023.7/bin/../lib/gcc/arm-none-eabi/12.2.1/thumb/v7e-m+fp/softfp\libc_nano.a(libc_a-mprec.o)
 .text.__b2d    0x00000000       0x94 c:/siliconlabs/simplicitystudio/v5/developer/toolchains/gnu_arm/12.2.rel1_2023.7/bin/../lib/gcc/arm-none-eabi/12.2.1/thumb/v7e-m+fp/softfp\libc_nano.a(libc_a-mprec.o)
 .text.__ratio  0x00000000       0x60 c:/siliconlabs/simplicitystudio/v5/developer/toolchains/gnu_arm/12.2.rel1_2023.7/bin/../lib/gcc/arm-none-eabi/12.2.1/thumb/v7e-m+fp/softfp\libc_nano.a(libc_a-mprec.o)
 .text._mprec_log10
                0x00000000       0x38 c:/siliconlabs/simplicitystudio/v5/developer/toolchains/gnu_arm/12.2.rel1_2023.7/bin/../lib/gcc/arm-none-eabi/12.2.1/thumb/v7e-m+fp/softfp\libc_nano.a(libc_a-mprec.o)
 .text.__copybits
                0x00000000       0x46 c:/siliconlabs/simplicitystudio/v5/developer/toolchains/gnu_arm/12.2.rel1_2023.7/bin/../lib/gcc/arm-none-eabi/12.2.1/thumb/v7e-m+fp/softfp\libc_nano.a(libc_a-mprec.o)
 .text.__any_on
                0x00000000       0x42 c:/siliconlabs/simplicitystudio/v5/developer/toolchains/gnu_arm/12.2.rel1_2023.7/bin/../lib/gcc/arm-none-eabi/12.2.1/thumb/v7e-m+fp/softfp\libc_nano.a(libc_a-mprec.o)
 .rodata.__mprec_tinytens
                0x00000000       0x28 c:/siliconlabs/simplicitystudio/v5/developer/toolchains/gnu_arm/12.2.rel1_2023.7/bin/../lib/gcc/arm-none-eabi/12.2.1/thumb/v7e-m+fp/softfp\libc_nano.a(libc_a-mprec.o)
 .text          0x00000000        0x0 c:/siliconlabs/simplicitystudio/v5/developer/toolchains/gnu_arm/12.2.rel1_2023.7/bin/../lib/gcc/arm-none-eabi/12.2.1/thumb/v7e-m+fp/softfp\libc_nano.a(libc_a-nano-vfprintf.o)
 .data          0x00000000        0x0 c:/siliconlabs/simplicitystudio/v5/developer/toolchains/gnu_arm/12.2.rel1_2023.7/bin/../lib/gcc/arm-none-eabi/12.2.1/thumb/v7e-m+fp/softfp\libc_nano.a(libc_a-nano-vfprintf.o)
 .bss           0x00000000        0x0 c:/siliconlabs/simplicitystudio/v5/developer/toolchains/gnu_arm/12.2.rel1_2023.7/bin/../lib/gcc/arm-none-eabi/12.2.1/thumb/v7e-m+fp/softfp\libc_nano.a(libc_a-nano-vfprintf.o)
 .text.__sprint_r
                0x00000000       0x1a c:/siliconlabs/simplicitystudio/v5/developer/toolchains/gnu_arm/12.2.rel1_2023.7/bin/../lib/gcc/arm-none-eabi/12.2.1/thumb/v7e-m+fp/softfp\libc_nano.a(libc_a-nano-vfprintf.o)
 .text.vfprintf
                0x00000000       0x14 c:/siliconlabs/simplicitystudio/v5/developer/toolchains/gnu_arm/12.2.rel1_2023.7/bin/../lib/gcc/arm-none-eabi/12.2.1/thumb/v7e-m+fp/softfp\libc_nano.a(libc_a-nano-vfprintf.o)
 .text          0x00000000        0x0 c:/siliconlabs/simplicitystudio/v5/developer/toolchains/gnu_arm/12.2.rel1_2023.7/bin/../lib/gcc/arm-none-eabi/12.2.1/thumb/v7e-m+fp/softfp\libc_nano.a(libc_a-fflush.o)
 .data          0x00000000        0x0 c:/siliconlabs/simplicitystudio/v5/developer/toolchains/gnu_arm/12.2.rel1_2023.7/bin/../lib/gcc/arm-none-eabi/12.2.1/thumb/v7e-m+fp/softfp\libc_nano.a(libc_a-fflush.o)
 .bss           0x00000000        0x0 c:/siliconlabs/simplicitystudio/v5/developer/toolchains/gnu_arm/12.2.rel1_2023.7/bin/../lib/gcc/arm-none-eabi/12.2.1/thumb/v7e-m+fp/softfp\libc_nano.a(libc_a-fflush.o)
 .text.fflush   0x00000000       0x28 c:/siliconlabs/simplicitystudio/v5/developer/toolchains/gnu_arm/12.2.rel1_2023.7/bin/../lib/gcc/arm-none-eabi/12.2.1/thumb/v7e-m+fp/softfp\libc_nano.a(libc_a-fflush.o)
 .text          0x00000000        0x0 c:/siliconlabs/simplicitystudio/v5/developer/toolchains/gnu_arm/12.2.rel1_2023.7/bin/../lib/gcc/arm-none-eabi/12.2.1/thumb/v7e-m+fp/softfp\libc_nano.a(libc_a-fvwrite.o)
 .data          0x00000000        0x0 c:/siliconlabs/simplicitystudio/v5/developer/toolchains/gnu_arm/12.2.rel1_2023.7/bin/../lib/gcc/arm-none-eabi/12.2.1/thumb/v7e-m+fp/softfp\libc_nano.a(libc_a-fvwrite.o)
 .bss           0x00000000        0x0 c:/siliconlabs/simplicitystudio/v5/developer/toolchains/gnu_arm/12.2.rel1_2023.7/bin/../lib/gcc/arm-none-eabi/12.2.1/thumb/v7e-m+fp/softfp\libc_nano.a(libc_a-fvwrite.o)
 .text.__sfvwrite_r
                0x00000000      0x2a0 c:/siliconlabs/simplicitystudio/v5/developer/toolchains/gnu_arm/12.2.rel1_2023.7/bin/../lib/gcc/arm-none-eabi/12.2.1/thumb/v7e-m+fp/softfp\libc_nano.a(libc_a-fvwrite.o)
 .debug_frame   0x00000000       0x3c c:/siliconlabs/simplicitystudio/v5/developer/toolchains/gnu_arm/12.2.rel1_2023.7/bin/../lib/gcc/arm-none-eabi/12.2.1/thumb/v7e-m+fp/softfp\libc_nano.a(libc_a-fvwrite.o)
 .ARM.attributes
                0x00000000       0x32 c:/siliconlabs/simplicitystudio/v5/developer/toolchains/gnu_arm/12.2.rel1_2023.7/bin/../lib/gcc/arm-none-eabi/12.2.1/thumb/v7e-m+fp/softfp\libc_nano.a(libc_a-fvwrite.o)
 .text          0x00000000        0x0 c:/siliconlabs/simplicitystudio/v5/developer/toolchains/gnu_arm/12.2.rel1_2023.7/bin/../lib/gcc/arm-none-eabi/12.2.1/thumb/v7e-m+fp/softfp\libc_nano.a(libc_a-makebuf.o)
 .data          0x00000000        0x0 c:/siliconlabs/simplicitystudio/v5/developer/toolchains/gnu_arm/12.2.rel1_2023.7/bin/../lib/gcc/arm-none-eabi/12.2.1/thumb/v7e-m+fp/softfp\libc_nano.a(libc_a-makebuf.o)
 .bss           0x00000000        0x0 c:/siliconlabs/simplicitystudio/v5/developer/toolchains/gnu_arm/12.2.rel1_2023.7/bin/../lib/gcc/arm-none-eabi/12.2.1/thumb/v7e-m+fp/softfp\libc_nano.a(libc_a-makebuf.o)
 .text          0x00000000        0x0 c:/siliconlabs/simplicitystudio/v5/developer/toolchains/gnu_arm/12.2.rel1_2023.7/bin/../lib/gcc/arm-none-eabi/12.2.1/thumb/v7e-m+fp/softfp\libc_nano.a(libc_a-memmove.o)
 .data          0x00000000        0x0 c:/siliconlabs/simplicitystudio/v5/developer/toolchains/gnu_arm/12.2.rel1_2023.7/bin/../lib/gcc/arm-none-eabi/12.2.1/thumb/v7e-m+fp/softfp\libc_nano.a(libc_a-memmove.o)
 .bss           0x00000000        0x0 c:/siliconlabs/simplicitystudio/v5/developer/toolchains/gnu_arm/12.2.rel1_2023.7/bin/../lib/gcc/arm-none-eabi/12.2.1/thumb/v7e-m+fp/softfp\libc_nano.a(libc_a-memmove.o)
 .text.memmove  0x00000000       0x34 c:/siliconlabs/simplicitystudio/v5/developer/toolchains/gnu_arm/12.2.rel1_2023.7/bin/../lib/gcc/arm-none-eabi/12.2.1/thumb/v7e-m+fp/softfp\libc_nano.a(libc_a-memmove.o)
 .debug_frame   0x00000000       0x28 c:/siliconlabs/simplicitystudio/v5/developer/toolchains/gnu_arm/12.2.rel1_2023.7/bin/../lib/gcc/arm-none-eabi/12.2.1/thumb/v7e-m+fp/softfp\libc_nano.a(libc_a-memmove.o)
 .ARM.attributes
                0x00000000       0x32 c:/siliconlabs/simplicitystudio/v5/developer/toolchains/gnu_arm/12.2.rel1_2023.7/bin/../lib/gcc/arm-none-eabi/12.2.1/thumb/v7e-m+fp/softfp\libc_nano.a(libc_a-memmove.o)
 .text          0x00000000        0x0 c:/siliconlabs/simplicitystudio/v5/developer/toolchains/gnu_arm/12.2.rel1_2023.7/bin/../lib/gcc/arm-none-eabi/12.2.1/thumb/v7e-m+fp/softfp\libc_nano.a(libc_a-locale.o)
 .data          0x00000000        0x0 c:/siliconlabs/simplicitystudio/v5/developer/toolchains/gnu_arm/12.2.rel1_2023.7/bin/../lib/gcc/arm-none-eabi/12.2.1/thumb/v7e-m+fp/softfp\libc_nano.a(libc_a-locale.o)
 .bss           0x00000000        0x0 c:/siliconlabs/simplicitystudio/v5/developer/toolchains/gnu_arm/12.2.rel1_2023.7/bin/../lib/gcc/arm-none-eabi/12.2.1/thumb/v7e-m+fp/softfp\libc_nano.a(libc_a-locale.o)
 .text._setlocale_r
                0x00000000       0x3c c:/siliconlabs/simplicitystudio/v5/developer/toolchains/gnu_arm/12.2.rel1_2023.7/bin/../lib/gcc/arm-none-eabi/12.2.1/thumb/v7e-m+fp/softfp\libc_nano.a(libc_a-locale.o)
 .text.__locale_mb_cur_max
                0x00000000        0xc c:/siliconlabs/simplicitystudio/v5/developer/toolchains/gnu_arm/12.2.rel1_2023.7/bin/../lib/gcc/arm-none-eabi/12.2.1/thumb/v7e-m+fp/softfp\libc_nano.a(libc_a-locale.o)
 .text.setlocale
                0x00000000       0x10 c:/siliconlabs/simplicitystudio/v5/developer/toolchains/gnu_arm/12.2.rel1_2023.7/bin/../lib/gcc/arm-none-eabi/12.2.1/thumb/v7e-m+fp/softfp\libc_nano.a(libc_a-locale.o)
 .bss._PathLocale
                0x00000000        0x4 c:/siliconlabs/simplicitystudio/v5/developer/toolchains/gnu_arm/12.2.rel1_2023.7/bin/../lib/gcc/arm-none-eabi/12.2.1/thumb/v7e-m+fp/softfp\libc_nano.a(libc_a-locale.o)
 .text          0x00000000        0x0 c:/siliconlabs/simplicitystudio/v5/developer/toolchains/gnu_arm/12.2.rel1_2023.7/bin/../lib/gcc/arm-none-eabi/12.2.1/thumb/v7e-m+fp/softfp\libc_nano.a(libc_a-fstatr.o)
 .data          0x00000000        0x0 c:/siliconlabs/simplicitystudio/v5/developer/toolchains/gnu_arm/12.2.rel1_2023.7/bin/../lib/gcc/arm-none-eabi/12.2.1/thumb/v7e-m+fp/softfp\libc_nano.a(libc_a-fstatr.o)
 .bss           0x00000000        0x0 c:/siliconlabs/simplicitystudio/v5/developer/toolchains/gnu_arm/12.2.rel1_2023.7/bin/../lib/gcc/arm-none-eabi/12.2.1/thumb/v7e-m+fp/softfp\libc_nano.a(libc_a-fstatr.o)
 .text          0x00000000        0x0 c:/siliconlabs/simplicitystudio/v5/developer/toolchains/gnu_arm/12.2.rel1_2023.7/bin/../lib/gcc/arm-none-eabi/12.2.1/thumb/v7e-m+fp/softfp\libc_nano.a(libc_a-isattyr.o)
 .data          0x00000000        0x0 c:/siliconlabs/simplicitystudio/v5/developer/toolchains/gnu_arm/12.2.rel1_2023.7/bin/../lib/gcc/arm-none-eabi/12.2.1/thumb/v7e-m+fp/softfp\libc_nano.a(libc_a-isattyr.o)
 .bss           0x00000000        0x0 c:/siliconlabs/simplicitystudio/v5/developer/toolchains/gnu_arm/12.2.rel1_2023.7/bin/../lib/gcc/arm-none-eabi/12.2.1/thumb/v7e-m+fp/softfp\libc_nano.a(libc_a-isattyr.o)
 .text          0x00000000        0x0 c:/siliconlabs/simplicitystudio/v5/developer/toolchains/gnu_arm/12.2.rel1_2023.7/bin/../lib/gcc/arm-none-eabi/12.2.1/thumb/v7e-m+fp/softfp\libc_nano.a(libc_a-sbrkr.o)
 .data          0x00000000        0x0 c:/siliconlabs/simplicitystudio/v5/developer/toolchains/gnu_arm/12.2.rel1_2023.7/bin/../lib/gcc/arm-none-eabi/12.2.1/thumb/v7e-m+fp/softfp\libc_nano.a(libc_a-sbrkr.o)
 .bss           0x00000000        0x0 c:/siliconlabs/simplicitystudio/v5/developer/toolchains/gnu_arm/12.2.rel1_2023.7/bin/../lib/gcc/arm-none-eabi/12.2.1/thumb/v7e-m+fp/softfp\libc_nano.a(libc_a-sbrkr.o)
 .text          0x00000000       0x14 c:/siliconlabs/simplicitystudio/v5/developer/toolchains/gnu_arm/12.2.rel1_2023.7/bin/../lib/gcc/arm-none-eabi/12.2.1/thumb/v7e-m+fp/softfp\libc_nano.a(libc_a-strcmp.o)
 .data          0x00000000        0x0 c:/siliconlabs/simplicitystudio/v5/developer/toolchains/gnu_arm/12.2.rel1_2023.7/bin/../lib/gcc/arm-none-eabi/12.2.1/thumb/v7e-m+fp/softfp\libc_nano.a(libc_a-strcmp.o)
 .bss           0x00000000        0x0 c:/siliconlabs/simplicitystudio/v5/developer/toolchains/gnu_arm/12.2.rel1_2023.7/bin/../lib/gcc/arm-none-eabi/12.2.1/thumb/v7e-m+fp/softfp\libc_nano.a(libc_a-strcmp.o)
 .debug_line_str
                0x00000000       0xec c:/siliconlabs/simplicitystudio/v5/developer/toolchains/gnu_arm/12.2.rel1_2023.7/bin/../lib/gcc/arm-none-eabi/12.2.1/thumb/v7e-m+fp/softfp\libc_nano.a(libc_a-strcmp.o)
 .debug_frame   0x00000000       0x20 c:/siliconlabs/simplicitystudio/v5/developer/toolchains/gnu_arm/12.2.rel1_2023.7/bin/../lib/gcc/arm-none-eabi/12.2.1/thumb/v7e-m+fp/softfp\libc_nano.a(libc_a-strcmp.o)
 .ARM.attributes
                0x00000000       0x20 c:/siliconlabs/simplicitystudio/v5/developer/toolchains/gnu_arm/12.2.rel1_2023.7/bin/../lib/gcc/arm-none-eabi/12.2.1/thumb/v7e-m+fp/softfp\libc_nano.a(libc_a-strcmp.o)
 .text          0x00000000        0x0 c:/siliconlabs/simplicitystudio/v5/developer/toolchains/gnu_arm/12.2.rel1_2023.7/bin/../lib/gcc/arm-none-eabi/12.2.1/thumb/v7e-m+fp/softfp\libc_nano.a(libc_a-memcpy-stub.o)
 .data          0x00000000        0x0 c:/siliconlabs/simplicitystudio/v5/developer/toolchains/gnu_arm/12.2.rel1_2023.7/bin/../lib/gcc/arm-none-eabi/12.2.1/thumb/v7e-m+fp/softfp\libc_nano.a(libc_a-memcpy-stub.o)
 .bss           0x00000000        0x0 c:/siliconlabs/simplicitystudio/v5/developer/toolchains/gnu_arm/12.2.rel1_2023.7/bin/../lib/gcc/arm-none-eabi/12.2.1/thumb/v7e-m+fp/softfp\libc_nano.a(libc_a-memcpy-stub.o)
 .text          0x00000000        0x0 c:/siliconlabs/simplicitystudio/v5/developer/toolchains/gnu_arm/12.2.rel1_2023.7/bin/../lib/gcc/arm-none-eabi/12.2.1/thumb/v7e-m+fp/softfp\libc_nano.a(libc_a-assert.o)
 .data          0x00000000        0x0 c:/siliconlabs/simplicitystudio/v5/developer/toolchains/gnu_arm/12.2.rel1_2023.7/bin/../lib/gcc/arm-none-eabi/12.2.1/thumb/v7e-m+fp/softfp\libc_nano.a(libc_a-assert.o)
 .bss           0x00000000        0x0 c:/siliconlabs/simplicitystudio/v5/developer/toolchains/gnu_arm/12.2.rel1_2023.7/bin/../lib/gcc/arm-none-eabi/12.2.1/thumb/v7e-m+fp/softfp\libc_nano.a(libc_a-assert.o)
 .text.__assert
                0x00000000        0xa c:/siliconlabs/simplicitystudio/v5/developer/toolchains/gnu_arm/12.2.rel1_2023.7/bin/../lib/gcc/arm-none-eabi/12.2.1/thumb/v7e-m+fp/softfp\libc_nano.a(libc_a-assert.o)
 .text          0x00000000        0x0 c:/siliconlabs/simplicitystudio/v5/developer/toolchains/gnu_arm/12.2.rel1_2023.7/bin/../lib/gcc/arm-none-eabi/12.2.1/thumb/v7e-m+fp/softfp\libc_nano.a(libc_a-callocr.o)
 .data          0x00000000        0x0 c:/siliconlabs/simplicitystudio/v5/developer/toolchains/gnu_arm/12.2.rel1_2023.7/bin/../lib/gcc/arm-none-eabi/12.2.1/thumb/v7e-m+fp/softfp\libc_nano.a(libc_a-callocr.o)
 .bss           0x00000000        0x0 c:/siliconlabs/simplicitystudio/v5/developer/toolchains/gnu_arm/12.2.rel1_2023.7/bin/../lib/gcc/arm-none-eabi/12.2.1/thumb/v7e-m+fp/softfp\libc_nano.a(libc_a-callocr.o)
 .text          0x00000000        0x0 c:/siliconlabs/simplicitystudio/v5/developer/toolchains/gnu_arm/12.2.rel1_2023.7/bin/../lib/gcc/arm-none-eabi/12.2.1/thumb/v7e-m+fp/softfp\libc_nano.a(libc_a-mbtowc_r.o)
 .data          0x00000000        0x0 c:/siliconlabs/simplicitystudio/v5/developer/toolchains/gnu_arm/12.2.rel1_2023.7/bin/../lib/gcc/arm-none-eabi/12.2.1/thumb/v7e-m+fp/softfp\libc_nano.a(libc_a-mbtowc_r.o)
 .bss           0x00000000        0x0 c:/siliconlabs/simplicitystudio/v5/developer/toolchains/gnu_arm/12.2.rel1_2023.7/bin/../lib/gcc/arm-none-eabi/12.2.1/thumb/v7e-m+fp/softfp\libc_nano.a(libc_a-mbtowc_r.o)
 .text._mbtowc_r
                0x00000000       0x14 c:/siliconlabs/simplicitystudio/v5/developer/toolchains/gnu_arm/12.2.rel1_2023.7/bin/../lib/gcc/arm-none-eabi/12.2.1/thumb/v7e-m+fp/softfp\libc_nano.a(libc_a-mbtowc_r.o)
 .text          0x00000000        0x0 c:/siliconlabs/simplicitystudio/v5/developer/toolchains/gnu_arm/12.2.rel1_2023.7/bin/../lib/gcc/arm-none-eabi/12.2.1/thumb/v7e-m+fp/softfp\libc_nano.a(libc_a-reallocr.o)
 .data          0x00000000        0x0 c:/siliconlabs/simplicitystudio/v5/developer/toolchains/gnu_arm/12.2.rel1_2023.7/bin/../lib/gcc/arm-none-eabi/12.2.1/thumb/v7e-m+fp/softfp\libc_nano.a(libc_a-reallocr.o)
 .bss           0x00000000        0x0 c:/siliconlabs/simplicitystudio/v5/developer/toolchains/gnu_arm/12.2.rel1_2023.7/bin/../lib/gcc/arm-none-eabi/12.2.1/thumb/v7e-m+fp/softfp\libc_nano.a(libc_a-reallocr.o)
 .text._realloc_r
                0x00000000       0x5c c:/siliconlabs/simplicitystudio/v5/developer/toolchains/gnu_arm/12.2.rel1_2023.7/bin/../lib/gcc/arm-none-eabi/12.2.1/thumb/v7e-m+fp/softfp\libc_nano.a(libc_a-reallocr.o)
 .debug_frame   0x00000000       0x3c c:/siliconlabs/simplicitystudio/v5/developer/toolchains/gnu_arm/12.2.rel1_2023.7/bin/../lib/gcc/arm-none-eabi/12.2.1/thumb/v7e-m+fp/softfp\libc_nano.a(libc_a-reallocr.o)
 .ARM.attributes
                0x00000000       0x32 c:/siliconlabs/simplicitystudio/v5/developer/toolchains/gnu_arm/12.2.rel1_2023.7/bin/../lib/gcc/arm-none-eabi/12.2.1/thumb/v7e-m+fp/softfp\libc_nano.a(libc_a-reallocr.o)
 .text          0x00000000        0x0 c:/siliconlabs/simplicitystudio/v5/developer/toolchains/gnu_arm/12.2.rel1_2023.7/bin/../lib/gcc/arm-none-eabi/12.2.1/thumb/v7e-m+fp/softfp\libc_nano.a(libc_a-wctomb_r.o)
 .data          0x00000000        0x0 c:/siliconlabs/simplicitystudio/v5/developer/toolchains/gnu_arm/12.2.rel1_2023.7/bin/../lib/gcc/arm-none-eabi/12.2.1/thumb/v7e-m+fp/softfp\libc_nano.a(libc_a-wctomb_r.o)
 .bss           0x00000000        0x0 c:/siliconlabs/simplicitystudio/v5/developer/toolchains/gnu_arm/12.2.rel1_2023.7/bin/../lib/gcc/arm-none-eabi/12.2.1/thumb/v7e-m+fp/softfp\libc_nano.a(libc_a-wctomb_r.o)
 .text._wctomb_r
                0x00000000       0x14 c:/siliconlabs/simplicitystudio/v5/developer/toolchains/gnu_arm/12.2.rel1_2023.7/bin/../lib/gcc/arm-none-eabi/12.2.1/thumb/v7e-m+fp/softfp\libc_nano.a(libc_a-wctomb_r.o)
 .text          0x00000000        0x0 c:/siliconlabs/simplicitystudio/v5/developer/toolchains/gnu_arm/12.2.rel1_2023.7/bin/../lib/gcc/arm-none-eabi/12.2.1/thumb/v7e-m+fp/softfp\libc_nano.a(libc_a-ctype_.o)
 .data          0x00000000        0x0 c:/siliconlabs/simplicitystudio/v5/developer/toolchains/gnu_arm/12.2.rel1_2023.7/bin/../lib/gcc/arm-none-eabi/12.2.1/thumb/v7e-m+fp/softfp\libc_nano.a(libc_a-ctype_.o)
 .bss           0x00000000        0x0 c:/siliconlabs/simplicitystudio/v5/developer/toolchains/gnu_arm/12.2.rel1_2023.7/bin/../lib/gcc/arm-none-eabi/12.2.1/thumb/v7e-m+fp/softfp\libc_nano.a(libc_a-ctype_.o)
 .text          0x00000000        0x0 c:/siliconlabs/simplicitystudio/v5/developer/toolchains/gnu_arm/12.2.rel1_2023.7/bin/../lib/gcc/arm-none-eabi/12.2.1/thumb/v7e-m+fp/softfp\libc_nano.a(libc_a-fprintf.o)
 .data          0x00000000        0x0 c:/siliconlabs/simplicitystudio/v5/developer/toolchains/gnu_arm/12.2.rel1_2023.7/bin/../lib/gcc/arm-none-eabi/12.2.1/thumb/v7e-m+fp/softfp\libc_nano.a(libc_a-fprintf.o)
 .bss           0x00000000        0x0 c:/siliconlabs/simplicitystudio/v5/developer/toolchains/gnu_arm/12.2.rel1_2023.7/bin/../lib/gcc/arm-none-eabi/12.2.1/thumb/v7e-m+fp/softfp\libc_nano.a(libc_a-fprintf.o)
 .text._fprintf_r
                0x00000000       0x1a c:/siliconlabs/simplicitystudio/v5/developer/toolchains/gnu_arm/12.2.rel1_2023.7/bin/../lib/gcc/arm-none-eabi/12.2.1/thumb/v7e-m+fp/softfp\libc_nano.a(libc_a-fprintf.o)
 .text          0x00000000        0x0 c:/siliconlabs/simplicitystudio/v5/developer/toolchains/gnu_arm/12.2.rel1_2023.7/bin/../lib/gcc/arm-none-eabi/12.2.1/thumb/v7e-m+fp/softfp\libc_nano.a(libc_a-abort.o)
 .data          0x00000000        0x0 c:/siliconlabs/simplicitystudio/v5/developer/toolchains/gnu_arm/12.2.rel1_2023.7/bin/../lib/gcc/arm-none-eabi/12.2.1/thumb/v7e-m+fp/softfp\libc_nano.a(libc_a-abort.o)
 .bss           0x00000000        0x0 c:/siliconlabs/simplicitystudio/v5/developer/toolchains/gnu_arm/12.2.rel1_2023.7/bin/../lib/gcc/arm-none-eabi/12.2.1/thumb/v7e-m+fp/softfp\libc_nano.a(libc_a-abort.o)
 .text          0x00000000        0x0 c:/siliconlabs/simplicitystudio/v5/developer/toolchains/gnu_arm/12.2.rel1_2023.7/bin/../lib/gcc/arm-none-eabi/12.2.1/thumb/v7e-m+fp/softfp\libc_nano.a(libc_a-msizer.o)
 .data          0x00000000        0x0 c:/siliconlabs/simplicitystudio/v5/developer/toolchains/gnu_arm/12.2.rel1_2023.7/bin/../lib/gcc/arm-none-eabi/12.2.1/thumb/v7e-m+fp/softfp\libc_nano.a(libc_a-msizer.o)
 .bss           0x00000000        0x0 c:/siliconlabs/simplicitystudio/v5/developer/toolchains/gnu_arm/12.2.rel1_2023.7/bin/../lib/gcc/arm-none-eabi/12.2.1/thumb/v7e-m+fp/softfp\libc_nano.a(libc_a-msizer.o)
 .text._malloc_usable_size_r
                0x00000000       0x10 c:/siliconlabs/simplicitystudio/v5/developer/toolchains/gnu_arm/12.2.rel1_2023.7/bin/../lib/gcc/arm-none-eabi/12.2.1/thumb/v7e-m+fp/softfp\libc_nano.a(libc_a-msizer.o)
 .debug_frame   0x00000000       0x20 c:/siliconlabs/simplicitystudio/v5/developer/toolchains/gnu_arm/12.2.rel1_2023.7/bin/../lib/gcc/arm-none-eabi/12.2.1/thumb/v7e-m+fp/softfp\libc_nano.a(libc_a-msizer.o)
 .ARM.attributes
                0x00000000       0x32 c:/siliconlabs/simplicitystudio/v5/developer/toolchains/gnu_arm/12.2.rel1_2023.7/bin/../lib/gcc/arm-none-eabi/12.2.1/thumb/v7e-m+fp/softfp\libc_nano.a(libc_a-msizer.o)
 .text          0x00000000        0x0 c:/siliconlabs/simplicitystudio/v5/developer/toolchains/gnu_arm/12.2.rel1_2023.7/bin/../lib/gcc/arm-none-eabi/12.2.1/thumb/v7e-m+fp/softfp\libc_nano.a(libc_a-signal.o)
 .data          0x00000000        0x0 c:/siliconlabs/simplicitystudio/v5/developer/toolchains/gnu_arm/12.2.rel1_2023.7/bin/../lib/gcc/arm-none-eabi/12.2.1/thumb/v7e-m+fp/softfp\libc_nano.a(libc_a-signal.o)
 .bss           0x00000000        0x0 c:/siliconlabs/simplicitystudio/v5/developer/toolchains/gnu_arm/12.2.rel1_2023.7/bin/../lib/gcc/arm-none-eabi/12.2.1/thumb/v7e-m+fp/softfp\libc_nano.a(libc_a-signal.o)
 .text._init_signal_r
                0x00000000       0x28 c:/siliconlabs/simplicitystudio/v5/developer/toolchains/gnu_arm/12.2.rel1_2023.7/bin/../lib/gcc/arm-none-eabi/12.2.1/thumb/v7e-m+fp/softfp\libc_nano.a(libc_a-signal.o)
 .text._signal_r
                0x00000000       0x30 c:/siliconlabs/simplicitystudio/v5/developer/toolchains/gnu_arm/12.2.rel1_2023.7/bin/../lib/gcc/arm-none-eabi/12.2.1/thumb/v7e-m+fp/softfp\libc_nano.a(libc_a-signal.o)
 .text.__sigtramp_r
                0x00000000       0x48 c:/siliconlabs/simplicitystudio/v5/developer/toolchains/gnu_arm/12.2.rel1_2023.7/bin/../lib/gcc/arm-none-eabi/12.2.1/thumb/v7e-m+fp/softfp\libc_nano.a(libc_a-signal.o)
 .text.signal   0x00000000       0x10 c:/siliconlabs/simplicitystudio/v5/developer/toolchains/gnu_arm/12.2.rel1_2023.7/bin/../lib/gcc/arm-none-eabi/12.2.1/thumb/v7e-m+fp/softfp\libc_nano.a(libc_a-signal.o)
 .text._init_signal
                0x00000000        0xc c:/siliconlabs/simplicitystudio/v5/developer/toolchains/gnu_arm/12.2.rel1_2023.7/bin/../lib/gcc/arm-none-eabi/12.2.1/thumb/v7e-m+fp/softfp\libc_nano.a(libc_a-signal.o)
 .text.__sigtramp
                0x00000000       0x10 c:/siliconlabs/simplicitystudio/v5/developer/toolchains/gnu_arm/12.2.rel1_2023.7/bin/../lib/gcc/arm-none-eabi/12.2.1/thumb/v7e-m+fp/softfp\libc_nano.a(libc_a-signal.o)
 .text          0x00000000        0x0 c:/siliconlabs/simplicitystudio/v5/developer/toolchains/gnu_arm/12.2.rel1_2023.7/bin/../lib/gcc/arm-none-eabi/12.2.1/thumb/v7e-m+fp/softfp\libc_nano.a(libc_a-signalr.o)
 .data          0x00000000        0x0 c:/siliconlabs/simplicitystudio/v5/developer/toolchains/gnu_arm/12.2.rel1_2023.7/bin/../lib/gcc/arm-none-eabi/12.2.1/thumb/v7e-m+fp/softfp\libc_nano.a(libc_a-signalr.o)
 .bss           0x00000000        0x0 c:/siliconlabs/simplicitystudio/v5/developer/toolchains/gnu_arm/12.2.rel1_2023.7/bin/../lib/gcc/arm-none-eabi/12.2.1/thumb/v7e-m+fp/softfp\libc_nano.a(libc_a-signalr.o)
 .data          0x00000000        0x0 c:/siliconlabs/simplicitystudio/v5/developer/toolchains/gnu_arm/12.2.rel1_2023.7/bin/../lib/gcc/arm-none-eabi/12.2.1/thumb/v7e-m+fp/softfp\libgcc.a(_arm_cmpdf2.o)
 .bss           0x00000000        0x0 c:/siliconlabs/simplicitystudio/v5/developer/toolchains/gnu_arm/12.2.rel1_2023.7/bin/../lib/gcc/arm-none-eabi/12.2.1/thumb/v7e-m+fp/softfp\libgcc.a(_arm_cmpdf2.o)
 .data          0x00000000        0x0 c:/siliconlabs/simplicitystudio/v5/developer/toolchains/gnu_arm/12.2.rel1_2023.7/bin/../lib/gcc/arm-none-eabi/12.2.1/thumb/v7e-m+fp/softfp\libgcc.a(_arm_unorddf2.o)
 .bss           0x00000000        0x0 c:/siliconlabs/simplicitystudio/v5/developer/toolchains/gnu_arm/12.2.rel1_2023.7/bin/../lib/gcc/arm-none-eabi/12.2.1/thumb/v7e-m+fp/softfp\libgcc.a(_arm_unorddf2.o)
 .data          0x00000000        0x0 c:/siliconlabs/simplicitystudio/v5/developer/toolchains/gnu_arm/12.2.rel1_2023.7/bin/../lib/gcc/arm-none-eabi/12.2.1/thumb/v7e-m+fp/softfp\libgcc.a(_arm_fixdfsi.o)
 .bss           0x00000000        0x0 c:/siliconlabs/simplicitystudio/v5/developer/toolchains/gnu_arm/12.2.rel1_2023.7/bin/../lib/gcc/arm-none-eabi/12.2.1/thumb/v7e-m+fp/softfp\libgcc.a(_arm_fixdfsi.o)
 .text          0x00000000        0x0 c:/siliconlabs/simplicitystudio/v5/developer/toolchains/gnu_arm/12.2.rel1_2023.7/bin/../lib/gcc/arm-none-eabi/12.2.1/thumb/v7e-m+fp/softfp/crtend.o
 .data          0x00000000        0x0 c:/siliconlabs/simplicitystudio/v5/developer/toolchains/gnu_arm/12.2.rel1_2023.7/bin/../lib/gcc/arm-none-eabi/12.2.1/thumb/v7e-m+fp/softfp/crtend.o
 .bss           0x00000000        0x0 c:/siliconlabs/simplicitystudio/v5/developer/toolchains/gnu_arm/12.2.rel1_2023.7/bin/../lib/gcc/arm-none-eabi/12.2.1/thumb/v7e-m+fp/softfp/crtend.o
 .rodata.all_implied_fbits
                0x00000000       0x24 c:/siliconlabs/simplicitystudio/v5/developer/toolchains/gnu_arm/12.2.rel1_2023.7/bin/../lib/gcc/arm-none-eabi/12.2.1/thumb/v7e-m+fp/softfp/crtend.o
 .eh_frame      0x00000000        0x4 c:/siliconlabs/simplicitystudio/v5/developer/toolchains/gnu_arm/12.2.rel1_2023.7/bin/../lib/gcc/arm-none-eabi/12.2.1/thumb/v7e-m+fp/softfp/crtend.o
 .text          0x00000000        0x0 c:/siliconlabs/simplicitystudio/v5/developer/toolchains/gnu_arm/12.2.rel1_2023.7/bin/../lib/gcc/arm-none-eabi/12.2.1/thumb/v7e-m+fp/softfp/crtn.o
 .data          0x00000000        0x0 c:/siliconlabs/simplicitystudio/v5/developer/toolchains/gnu_arm/12.2.rel1_2023.7/bin/../lib/gcc/arm-none-eabi/12.2.1/thumb/v7e-m+fp/softfp/crtn.o
 .bss           0x00000000        0x0 c:/siliconlabs/simplicitystudio/v5/developer/toolchains/gnu_arm/12.2.rel1_2023.7/bin/../lib/gcc/arm-none-eabi/12.2.1/thumb/v7e-m+fp/softfp/crtn.o

Memory Configuration

Name             Origin             Length             Attributes
rom              0x08202000         0x001fe000         xr
ram              0x0000000c         0x0002fbf4         xrw
udma0            0x0002fc00         0x00000400         xrw
udma1            0x24061c00         0x00000400         xrw
*default*        0x00000000         0xffffffff

Linker script and memory map

LOAD c:/siliconlabs/simplicitystudio/v5/developer/toolchains/gnu_arm/12.2.rel1_2023.7/bin/../lib/gcc/arm-none-eabi/12.2.1/thumb/v7e-m+fp/softfp/crti.o
LOAD c:/siliconlabs/simplicitystudio/v5/developer/toolchains/gnu_arm/12.2.rel1_2023.7/bin/../lib/gcc/arm-none-eabi/12.2.1/thumb/v7e-m+fp/softfp/crtbegin.o
LOAD c:/siliconlabs/simplicitystudio/v5/developer/toolchains/gnu_arm/12.2.rel1_2023.7/bin/../lib/gcc/arm-none-eabi/12.2.1/thumb/v7e-m+fp/softfp/crt0.o
START GROUP
LOAD ./ampak_gspi_util.o
LOAD ./app.o
LOAD ./main.o
LOAD ./autogen/sl_event_handler.o
LOAD ./autogen/sl_ulp_timer_init.o
LOAD ./simplicity_sdk_2024.6.0/platform/common/src/sl_assert.o
LOAD ./simplicity_sdk_2024.6.0/platform/service/system/src/sl_system_init.o
LOAD ./simplicity_sdk_2024.6.0/platform/service/system/src/sl_system_process_action.o
LOAD ./wiseconnect3_sdk_3.3.0/components/board/silabs/src/rsi_board.o
LOAD ./wiseconnect3_sdk_3.3.0/components/device/silabs/si91x/mcu/core/chip/src/iPMU_prog/iPMU_dotc/ipmu_apis.o
LOAD ./wiseconnect3_sdk_3.3.0/components/device/silabs/si91x/mcu/core/chip/src/iPMU_prog/iPMU_dotc/rsi_system_config_917.o
LOAD ./wiseconnect3_sdk_3.3.0/components/device/silabs/si91x/mcu/core/chip/src/rsi_deepsleep_soc.o
LOAD ./wiseconnect3_sdk_3.3.0/components/device/silabs/si91x/mcu/core/chip/src/rsi_ps_ram_func.o
LOAD ./wiseconnect3_sdk_3.3.0/components/device/silabs/si91x/mcu/core/chip/src/startup_si91x.o
LOAD ./wiseconnect3_sdk_3.3.0/components/device/silabs/si91x/mcu/core/chip/src/system_si91x.o
LOAD ./wiseconnect3_sdk_3.3.0/components/device/silabs/si91x/mcu/core/common/src/rsi_debug.o
LOAD ./wiseconnect3_sdk_3.3.0/components/device/silabs/si91x/mcu/core/common/src/sl_si91x_stack_object_declare.o
LOAD ./wiseconnect3_sdk_3.3.0/components/device/silabs/si91x/mcu/core/common/src/syscalls.o
LOAD ./wiseconnect3_sdk_3.3.0/components/device/silabs/si91x/mcu/core/config/src/rsi_nvic_priorities_config.o
LOAD ./wiseconnect3_sdk_3.3.0/components/device/silabs/si91x/mcu/drivers/cmsis_driver/GSPI.o
LOAD ./wiseconnect3_sdk_3.3.0/components/device/silabs/si91x/mcu/drivers/cmsis_driver/UDMA.o
LOAD ./wiseconnect3_sdk_3.3.0/components/device/silabs/si91x/mcu/drivers/cmsis_driver/USART.o
LOAD ./wiseconnect3_sdk_3.3.0/components/device/silabs/si91x/mcu/drivers/peripheral_drivers/src/clock_update.o
LOAD ./wiseconnect3_sdk_3.3.0/components/device/silabs/si91x/mcu/drivers/peripheral_drivers/src/rsi_crc.o
LOAD ./wiseconnect3_sdk_3.3.0/components/device/silabs/si91x/mcu/drivers/peripheral_drivers/src/rsi_egpio.o
LOAD ./wiseconnect3_sdk_3.3.0/components/device/silabs/si91x/mcu/drivers/peripheral_drivers/src/rsi_gspi.o
LOAD ./wiseconnect3_sdk_3.3.0/components/device/silabs/si91x/mcu/drivers/peripheral_drivers/src/rsi_timers.o
LOAD ./wiseconnect3_sdk_3.3.0/components/device/silabs/si91x/mcu/drivers/peripheral_drivers/src/rsi_udma.o
LOAD ./wiseconnect3_sdk_3.3.0/components/device/silabs/si91x/mcu/drivers/peripheral_drivers/src/rsi_udma_wrapper.o
LOAD ./wiseconnect3_sdk_3.3.0/components/device/silabs/si91x/mcu/drivers/peripheral_drivers/src/rsi_usart.o
LOAD ./wiseconnect3_sdk_3.3.0/components/device/silabs/si91x/mcu/drivers/service/clock_manager/src/sl_si91x_clock_manager.o
LOAD ./wiseconnect3_sdk_3.3.0/components/device/silabs/si91x/mcu/drivers/systemlevel/src/rsi_ipmu.o
LOAD ./wiseconnect3_sdk_3.3.0/components/device/silabs/si91x/mcu/drivers/systemlevel/src/rsi_pll.o
LOAD ./wiseconnect3_sdk_3.3.0/components/device/silabs/si91x/mcu/drivers/systemlevel/src/rsi_temp_sensor.o
LOAD ./wiseconnect3_sdk_3.3.0/components/device/silabs/si91x/mcu/drivers/systemlevel/src/rsi_ulpss_clk.o
LOAD ./wiseconnect3_sdk_3.3.0/components/device/silabs/si91x/mcu/drivers/unified_api/src/sl_si91x_dma.o
LOAD ./wiseconnect3_sdk_3.3.0/components/device/silabs/si91x/mcu/drivers/unified_api/src/sl_si91x_gspi.o
LOAD ./wiseconnect3_sdk_3.3.0/components/device/silabs/si91x/mcu/drivers/unified_api/src/sl_si91x_ulp_timer.o
LOAD c:/siliconlabs/simplicitystudio/v5/developer/toolchains/gnu_arm/12.2.rel1_2023.7/bin/../lib/gcc/arm-none-eabi/12.2.1/thumb/v7e-m+fp/softfp\libgcc.a
LOAD c:/siliconlabs/simplicitystudio/v5/developer/toolchains/gnu_arm/12.2.rel1_2023.7/bin/../lib/gcc/arm-none-eabi/12.2.1/thumb/v7e-m+fp/softfp\libnosys.a
LOAD c:/siliconlabs/simplicitystudio/v5/developer/toolchains/gnu_arm/12.2.rel1_2023.7/bin/../lib/gcc/arm-none-eabi/12.2.1/thumb/v7e-m+fp/softfp\libc_nano.a
LOAD c:/siliconlabs/simplicitystudio/v5/developer/toolchains/gnu_arm/12.2.rel1_2023.7/bin/../lib/gcc/arm-none-eabi/12.2.1/thumb/v7e-m+fp/softfp\libm.a
END GROUP
START GROUP
LOAD c:/siliconlabs/simplicitystudio/v5/developer/toolchains/gnu_arm/12.2.rel1_2023.7/bin/../lib/gcc/arm-none-eabi/12.2.1/thumb/v7e-m+fp/softfp\libgcc.a
LOAD c:/siliconlabs/simplicitystudio/v5/developer/toolchains/gnu_arm/12.2.rel1_2023.7/bin/../lib/gcc/arm-none-eabi/12.2.1/thumb/v7e-m+fp/softfp\libc_nano.a
LOAD c:/siliconlabs/simplicitystudio/v5/developer/toolchains/gnu_arm/12.2.rel1_2023.7/bin/../lib/gcc/arm-none-eabi/12.2.1/thumb/v7e-m+fp/softfp\libnosys.a
END GROUP
START GROUP
LOAD c:/siliconlabs/simplicitystudio/v5/developer/toolchains/gnu_arm/12.2.rel1_2023.7/bin/../lib/gcc/arm-none-eabi/12.2.1/thumb/v7e-m+fp/softfp\libgcc.a
LOAD c:/siliconlabs/simplicitystudio/v5/developer/toolchains/gnu_arm/12.2.rel1_2023.7/bin/../lib/gcc/arm-none-eabi/12.2.1/thumb/v7e-m+fp/softfp\libg_nano.a
LOAD c:/siliconlabs/simplicitystudio/v5/developer/toolchains/gnu_arm/12.2.rel1_2023.7/bin/../lib/gcc/arm-none-eabi/12.2.1/thumb/v7e-m+fp/softfp\libc_nano.a
END GROUP
START GROUP
LOAD c:/siliconlabs/simplicitystudio/v5/developer/toolchains/gnu_arm/12.2.rel1_2023.7/bin/../lib/gcc/arm-none-eabi/12.2.1/thumb/v7e-m+fp/softfp\libgcc.a
LOAD c:/siliconlabs/simplicitystudio/v5/developer/toolchains/gnu_arm/12.2.rel1_2023.7/bin/../lib/gcc/arm-none-eabi/12.2.1/thumb/v7e-m+fp/softfp\libc_nano.a
END GROUP
LOAD c:/siliconlabs/simplicitystudio/v5/developer/toolchains/gnu_arm/12.2.rel1_2023.7/bin/../lib/gcc/arm-none-eabi/12.2.1/thumb/v7e-m+fp/softfp/crtend.o
LOAD c:/siliconlabs/simplicitystudio/v5/developer/toolchains/gnu_arm/12.2.rel1_2023.7/bin/../lib/gcc/arm-none-eabi/12.2.1/thumb/v7e-m+fp/softfp/crtn.o

.text           0x08202000     0x86d0
 *(.isr_vector)
 .isr_vector    0x08202000      0x16c ./wiseconnect3_sdk_3.3.0/components/device/silabs/si91x/mcu/core/chip/src/startup_si91x.o
                0x08202000                __Vectors
 *(EXCLUDE_FILE(*UDMA.o) .text*)
 .text.deregister_tm_clones
                0x0820216c       0x1c c:/siliconlabs/simplicitystudio/v5/developer/toolchains/gnu_arm/12.2.rel1_2023.7/bin/../lib/gcc/arm-none-eabi/12.2.1/thumb/v7e-m+fp/softfp/crtbegin.o
 .text.register_tm_clones
                0x08202188       0x24 c:/siliconlabs/simplicitystudio/v5/developer/toolchains/gnu_arm/12.2.rel1_2023.7/bin/../lib/gcc/arm-none-eabi/12.2.1/thumb/v7e-m+fp/softfp/crtbegin.o
 .text.__do_global_dtors_aux
                0x082021ac       0x28 c:/siliconlabs/simplicitystudio/v5/developer/toolchains/gnu_arm/12.2.rel1_2023.7/bin/../lib/gcc/arm-none-eabi/12.2.1/thumb/v7e-m+fp/softfp/crtbegin.o
 .text.frame_dummy
                0x082021d4       0x24 c:/siliconlabs/simplicitystudio/v5/developer/toolchains/gnu_arm/12.2.rel1_2023.7/bin/../lib/gcc/arm-none-eabi/12.2.1/thumb/v7e-m+fp/softfp/crtbegin.o
 .text.gspi_callback_event
                0x082021f8       0x10 ./ampak_gspi_util.o
 .text.compare_loop_back_data
                0x08202208       0x54 ./ampak_gspi_util.o
 .text.gspi_init
                0x0820225c      0x184 ./ampak_gspi_util.o
                0x0820225c                gspi_init
 .text.ampak_gspi_transfer
                0x082023e0       0x30 ./ampak_gspi_util.o
                0x082023e0                ampak_gspi_transfer
 .text.ampak_gspi_send
                0x08202410       0x2c ./ampak_gspi_util.o
                0x08202410                ampak_gspi_send
 .text.ampak_gspi_receive
                0x0820243c       0x2c ./ampak_gspi_util.o
                0x0820243c                ampak_gspi_receive
 .text.gspi_test_run
                0x08202468      0x120 ./ampak_gspi_util.o
                0x08202468                gspi_test_run
 .text.app_init
                0x08202588        0x4 ./app.o
                0x08202588                app_init
 .text.app_process_action
                0x0820258c        0x4 ./app.o
                0x0820258c                app_process_action
 .text.startup.main
                0x08202590       0x14 ./main.o
                0x08202590                main
 .text.sl_platform_init
                0x082025a4       0x12 ./autogen/sl_event_handler.o
                0x082025a4                sl_platform_init
 .text.sl_driver_init
                0x082025b6        0x2 ./autogen/sl_event_handler.o
                0x082025b6                sl_driver_init
 .text.sl_service_init
                0x082025b8        0x2 ./autogen/sl_event_handler.o
                0x082025b8                sl_service_init
 .text.sl_stack_init
                0x082025ba        0x2 ./autogen/sl_event_handler.o
                0x082025ba                sl_stack_init
 .text.sl_internal_app_init
                0x082025bc        0x2 ./autogen/sl_event_handler.o
                0x082025bc                sl_internal_app_init
 .text.sl_platform_process_action
                0x082025be        0x2 ./autogen/sl_event_handler.o
                0x082025be                sl_platform_process_action
 .text.sl_service_process_action
                0x082025c0        0x2 ./autogen/sl_event_handler.o
                0x082025c0                sl_service_process_action
 .text.sl_stack_process_action
                0x082025c2        0x2 ./autogen/sl_event_handler.o
                0x082025c2                sl_stack_process_action
 .text.sl_internal_app_process_action
                0x082025c4        0x2 ./autogen/sl_event_handler.o
                0x082025c4                sl_internal_app_process_action
 .text.sl_system_init
                0x082025c6       0x1a ./simplicity_sdk_2024.6.0/platform/service/system/src/sl_system_init.o
                0x082025c6                sl_system_init
 .text.sl_system_process_action
                0x082025e0       0x16 ./simplicity_sdk_2024.6.0/platform/service/system/src/sl_system_process_action.o
                0x082025e0                sl_system_process_action
 *fill*         0x082025f6        0x2 
 .text.RSI_Board_Init
                0x082025f8       0x5c ./wiseconnect3_sdk_3.3.0/components/board/silabs/src/rsi_board.o
                0x082025f8                RSI_Board_Init
 .text.init_ipmu_calib_data
                0x08202654       0x54 ./wiseconnect3_sdk_3.3.0/components/device/silabs/si91x/mcu/core/chip/src/iPMU_prog/iPMU_dotc/ipmu_apis.o
                0x08202654                init_ipmu_calib_data
 .text.program_ipmu_data
                0x082026a8       0x54 ./wiseconnect3_sdk_3.3.0/components/device/silabs/si91x/mcu/core/chip/src/iPMU_prog/iPMU_dotc/ipmu_apis.o
                0x082026a8                program_ipmu_data
 .text.ipmu_init_mcu
                0x082026fc       0x94 ./wiseconnect3_sdk_3.3.0/components/device/silabs/si91x/mcu/core/chip/src/iPMU_prog/iPMU_dotc/ipmu_apis.o
                0x082026fc                ipmu_init_mcu
 .text.ipmu_init
                0x08202790       0xa8 ./wiseconnect3_sdk_3.3.0/components/device/silabs/si91x/mcu/core/chip/src/iPMU_prog/iPMU_dotc/ipmu_apis.o
                0x08202790                ipmu_init
 .text.configure_ipmu_mode
                0x08202838       0x38 ./wiseconnect3_sdk_3.3.0/components/device/silabs/si91x/mcu/core/chip/src/iPMU_prog/iPMU_dotc/ipmu_apis.o
                0x08202838                configure_ipmu_mode
 .text.RSI_PS_RestoreCpuContext
                0x08202870       0x34 ./wiseconnect3_sdk_3.3.0/components/device/silabs/si91x/mcu/core/chip/src/rsi_deepsleep_soc.o
                0x08202870                RSI_PS_RestoreCpuContext
 .text.RSI_Set_Cntrls_To_M4
                0x082028a4       0x50 ./wiseconnect3_sdk_3.3.0/components/device/silabs/si91x/mcu/core/chip/src/rsi_deepsleep_soc.o
                0x082028a4                RSI_Set_Cntrls_To_M4
 .text.Default_Handler
                0x082028f4        0x2 ./wiseconnect3_sdk_3.3.0/components/device/silabs/si91x/mcu/core/chip/src/startup_si91x.o
                0x082028f4                DebugMon_Handler
                0x082028f4                IRQ031_Handler
                0x082028f4                HardFault_Handler
                0x082028f4                IRQ058_Handler
                0x082028f4                IRQ095_Handler
                0x082028f4                IRQ065_Handler
                0x082028f4                SysTick_Handler
                0x082028f4                IRQ019_Handler
                0x082028f4                IRQ056_Handler
                0x082028f4                IRQ093_Handler
                0x082028f4                PendSV_Handler
                0x082028f4                NMI_Handler
                0x082028f4                IRQ011_Handler
                0x082028f4                IRQ014_Handler
                0x082028f4                IRQ051_Handler
                0x082028f4                IRQ027_Handler
                0x082028f4                IRQ062_Handler
                0x082028f4                IRQ097_Handler
                0x082028f4                IRQ088_Handler
                0x082028f4                IRQ034_Handler
                0x082028f4                IRQ071_Handler
                0x082028f4                IRQ067_Handler
                0x082028f4                IRQ070_Handler
                0x082028f4                IRQ077_Handler
                0x082028f4                IRQ028_Handler
                0x082028f4                IRQ063_Handler
                0x082028f4                IRQ076_Handler
                0x082028f4                UsageFault_Handler
                0x082028f4                IRQ023_Handler
                0x082028f4                IRQ009_Handler
                0x082028f4                IRQ048_Handler
                0x082028f4                IRQ083_Handler
                0x082028f4                IRQ089_Handler
                0x082028f4                HIF1_IRQHandler
                0x082028f4                IRQ037_Handler
                0x082028f4                IRQ074_Handler
                0x082028f4                IRQ072_Handler
                0x082028f4                IRQ021_Handler
                0x082028f4                IRQ008_Handler
                0x082028f4                IRQ047_Handler
                0x082028f4                IRQ082_Handler
                0x082028f4                IRQ022_Handler
                0x082028f4                IRQ007_Handler
                0x082028f4                IRQ081_Handler
                0x082028f4                IRQ043_Handler
                0x082028f4                IRQ041_Handler
                0x082028f4                IRQ098_Handler
                0x082028f4                IRQ000_Handler
                0x082028f4                IRQ044_Handler
                0x082028f4                IRQ049_Handler
                0x082028f4                IRQ084_Handler
                0x082028f4                IRQ006_Handler
                0x082028f4                IRQ045_Handler
                0x082028f4                IRQ080_Handler
                0x082028f4                IRQ015_Handler
                0x082028f4                IRQ052_Handler
                0x082028f4                MemManage_Handler
                0x082028f4                HIF2_IRQHandler
                0x082028f4                SVC_Handler
                0x082028f4                IRQ001_Handler
                0x082028f4                IRQ040_Handler
                0x082028f4                IRQ068_Handler
                0x082028f4                IRQ059_Handler
                0x082028f4                IRQ096_Handler
                0x082028f4                IRQ042_Handler
                0x082028f4                IRQ024_Handler
                0x082028f4                IRQ016_Handler
                0x082028f4                IRQ053_Handler
                0x082028f4                IRQ090_Handler
                0x082028f4                IRQ078_Handler
                0x082028f4                IRQ032_Handler
                0x082028f4                IRQ020_Handler
                0x082028f4                IRQ073_Handler
                0x082028f4                IRQ018_Handler
                0x082028f4                IRQ055_Handler
                0x082028f4                IRQ092_Handler
                0x082028f4                IRQ087_Handler
                0x082028f4                IRQ026_Handler
                0x082028f4                IRQ061_Handler
                0x082028f4                IRQ025_Handler
                0x082028f4                IRQ060_Handler
                0x082028f4                IRQ085_Handler
                0x082028f4                IRQ013_Handler
                0x082028f4                IRQ050_Handler
                0x082028f4                IRQ030_Handler
                0x082028f4                IRQ029_Handler
                0x082028f4                IRQ064_Handler
                0x082028f4                IRQ066_Handler
                0x082028f4                IRQ017_Handler
                0x082028f4                IRQ054_Handler
                0x082028f4                IRQ091_Handler
                0x082028f4                BusFault_Handler
                0x082028f4                IRQ069_Handler
                0x082028f4                IRQ075_Handler
                0x082028f4                IRQ086_Handler
                0x082028f4                IRQ057_Handler
                0x082028f4                IRQ094_Handler
                0x082028f4                IRQ079_Handler
 .text.Default_Reset_Handler
                0x082028f6        0x2 ./wiseconnect3_sdk_3.3.0/components/device/silabs/si91x/mcu/core/chip/src/startup_si91x.o
                0x082028f6                Default_Reset_Handler
                0x082028f6                Reset_Handler
 .text.Copy_Table
                0x082028f8       0x24 ./wiseconnect3_sdk_3.3.0/components/device/silabs/si91x/mcu/core/chip/src/startup_si91x.o
                0x082028f8                Copy_Table
 .text.Zero_Table
                0x0820291c       0x24 ./wiseconnect3_sdk_3.3.0/components/device/silabs/si91x/mcu/core/chip/src/startup_si91x.o
                0x0820291c                Zero_Table
 .text.RSI_Default_Reset_Handler
                0x08202940       0x16 ./wiseconnect3_sdk_3.3.0/components/device/silabs/si91x/mcu/core/chip/src/startup_si91x.o
                0x08202940                RSI_Default_Reset_Handler
 *fill*         0x08202956        0x2 
 .text.SystemCoreClockUpdate
                0x08202958      0x118 ./wiseconnect3_sdk_3.3.0/components/device/silabs/si91x/mcu/core/chip/src/system_si91x.o
                0x08202958                SystemCoreClockUpdate
 .text.fpuInit  0x08202a70       0x44 ./wiseconnect3_sdk_3.3.0/components/device/silabs/si91x/mcu/core/chip/src/system_si91x.o
                0x08202a70                fpuInit
 .text.SystemInit
                0x08202ab4       0xe4 ./wiseconnect3_sdk_3.3.0/components/device/silabs/si91x/mcu/core/chip/src/system_si91x.o
                0x08202ab4                SystemInit
 .text.ARM_UART_SignalEvent
                0x08202b98       0x24 ./wiseconnect3_sdk_3.3.0/components/device/silabs/si91x/mcu/core/common/src/rsi_debug.o
                0x08202b98                ARM_UART_SignalEvent
 .text.Board_Debug_Init
                0x08202bbc       0x4c ./wiseconnect3_sdk_3.3.0/components/device/silabs/si91x/mcu/core/common/src/rsi_debug.o
                0x08202bbc                Board_Debug_Init
 .text.Board_UARTGetChar
                0x08202c08       0x30 ./wiseconnect3_sdk_3.3.0/components/device/silabs/si91x/mcu/core/common/src/rsi_debug.o
                0x08202c08                Board_UARTGetChar
 .text.Board_UARTPutChar
                0x08202c38       0x30 ./wiseconnect3_sdk_3.3.0/components/device/silabs/si91x/mcu/core/common/src/rsi_debug.o
                0x08202c38                Board_UARTPutChar
 .text.read_exclude_space
                0x08202c68       0x20 ./wiseconnect3_sdk_3.3.0/components/device/silabs/si91x/mcu/core/common/src/syscalls.o
 .text._getpid  0x08202c88        0x4 ./wiseconnect3_sdk_3.3.0/components/device/silabs/si91x/mcu/core/common/src/syscalls.o
                0x08202c88                _getpid
 .text._kill    0x08202c8c       0x10 ./wiseconnect3_sdk_3.3.0/components/device/silabs/si91x/mcu/core/common/src/syscalls.o
                0x08202c8c                _kill
 .text._exit    0x08202c9c        0xc ./wiseconnect3_sdk_3.3.0/components/device/silabs/si91x/mcu/core/common/src/syscalls.o
                0x08202c9c                _exit
 .text._write   0x08202ca8       0x1c ./wiseconnect3_sdk_3.3.0/components/device/silabs/si91x/mcu/core/common/src/syscalls.o
                0x08202ca8                _write
 .text._sbrk    0x08202cc4       0x20 ./wiseconnect3_sdk_3.3.0/components/device/silabs/si91x/mcu/core/common/src/syscalls.o
                0x08202cc4                _sbrk
 .text._close   0x08202ce4        0x6 ./wiseconnect3_sdk_3.3.0/components/device/silabs/si91x/mcu/core/common/src/syscalls.o
                0x08202ce4                _close
 .text._fstat   0x08202cea        0xa ./wiseconnect3_sdk_3.3.0/components/device/silabs/si91x/mcu/core/common/src/syscalls.o
                0x08202cea                _fstat
 .text._isatty  0x08202cf4        0x4 ./wiseconnect3_sdk_3.3.0/components/device/silabs/si91x/mcu/core/common/src/syscalls.o
                0x08202cf4                _isatty
 .text._lseek   0x08202cf8        0x4 ./wiseconnect3_sdk_3.3.0/components/device/silabs/si91x/mcu/core/common/src/syscalls.o
                0x08202cf8                _lseek
 .text._read    0x08202cfc      0x30c ./wiseconnect3_sdk_3.3.0/components/device/silabs/si91x/mcu/core/common/src/syscalls.o
                0x08202cfc                _read
 .text.GSPI_MASTER_GetVersion
                0x08203008       0x20 ./wiseconnect3_sdk_3.3.0/components/device/silabs/si91x/mcu/drivers/cmsis_driver/GSPI.o
                0x08203008                GSPI_MASTER_GetVersion
 .text.GSPI_MASTER_GetCapabilities
                0x08203028        0x4 ./wiseconnect3_sdk_3.3.0/components/device/silabs/si91x/mcu/drivers/cmsis_driver/GSPI.o
                0x08203028                GSPI_MASTER_GetCapabilities
 .text.GSPI_MASTER_UDMA_Tx_Event
                0x0820302c        0xc ./wiseconnect3_sdk_3.3.0/components/device/silabs/si91x/mcu/drivers/cmsis_driver/GSPI.o
                0x0820302c                GSPI_MASTER_UDMA_Tx_Event
 .text.GSPI_MASTER_UDMA_Rx_Event
                0x08203038        0xc ./wiseconnect3_sdk_3.3.0/components/device/silabs/si91x/mcu/drivers/cmsis_driver/GSPI.o
                0x08203038                GSPI_MASTER_UDMA_Rx_Event
 .text.GSPI_MASTER_GetStatus
                0x08203044        0xc ./wiseconnect3_sdk_3.3.0/components/device/silabs/si91x/mcu/drivers/cmsis_driver/GSPI.o
 .text.GSPI_MASTER_Control
                0x08203050       0x3c ./wiseconnect3_sdk_3.3.0/components/device/silabs/si91x/mcu/drivers/cmsis_driver/GSPI.o
 .text.GSPI_MASTER_GetDataCount
                0x0820308c        0xc ./wiseconnect3_sdk_3.3.0/components/device/silabs/si91x/mcu/drivers/cmsis_driver/GSPI.o
 .text.GSPI_MASTER_Transfer
                0x08203098       0x2c ./wiseconnect3_sdk_3.3.0/components/device/silabs/si91x/mcu/drivers/cmsis_driver/GSPI.o
 .text.GSPI_MASTER_Receive
                0x082030c4       0x2c ./wiseconnect3_sdk_3.3.0/components/device/silabs/si91x/mcu/drivers/cmsis_driver/GSPI.o
 .text.GSPI_MASTER_Send
                0x082030f0       0x2c ./wiseconnect3_sdk_3.3.0/components/device/silabs/si91x/mcu/drivers/cmsis_driver/GSPI.o
 .text.GSPI_MASTER_PowerControl
                0x0820311c        0xc ./wiseconnect3_sdk_3.3.0/components/device/silabs/si91x/mcu/drivers/cmsis_driver/GSPI.o
 .text.GSPI_MASTER_Uninitialize
                0x08203128       0x10 ./wiseconnect3_sdk_3.3.0/components/device/silabs/si91x/mcu/drivers/cmsis_driver/GSPI.o
 .text.GSPI_MASTER_Initialize
                0x08203138       0x30 ./wiseconnect3_sdk_3.3.0/components/device/silabs/si91x/mcu/drivers/cmsis_driver/GSPI.o
 .text.RSI_GSPI_SetSlaveSelectNumber
                0x08203168        0xc ./wiseconnect3_sdk_3.3.0/components/device/silabs/si91x/mcu/drivers/cmsis_driver/GSPI.o
                0x08203168                RSI_GSPI_SetSlaveSelectNumber
 .text.IRQ046_Handler
                0x08203174        0xc ./wiseconnect3_sdk_3.3.0/components/device/silabs/si91x/mcu/drivers/cmsis_driver/GSPI.o
                0x08203174                IRQ046_Handler
 .text.GSPI_GetFrameLength
                0x08203180       0x10 ./wiseconnect3_sdk_3.3.0/components/device/silabs/si91x/mcu/drivers/cmsis_driver/GSPI.o
                0x08203180                GSPI_GetFrameLength
 .text.GSPI_SwapReadWriteByte
                0x08203190       0x48 ./wiseconnect3_sdk_3.3.0/components/device/silabs/si91x/mcu/drivers/cmsis_driver/GSPI.o
                0x08203190                GSPI_SwapReadWriteByte
 .text.GSPI_GetInitState
                0x082031d8       0x10 ./wiseconnect3_sdk_3.3.0/components/device/silabs/si91x/mcu/drivers/cmsis_driver/GSPI.o
                0x082031d8                GSPI_GetInitState
 .text.gspi_transfer_complete_callback
                0x082031e8       0x20 ./wiseconnect3_sdk_3.3.0/components/device/silabs/si91x/mcu/drivers/cmsis_driver/GSPI.o
                0x082031e8                gspi_transfer_complete_callback
 .text.gspi_error_callback
                0x08203208       0x20 ./wiseconnect3_sdk_3.3.0/components/device/silabs/si91x/mcu/drivers/cmsis_driver/GSPI.o
                0x08203208                gspi_error_callback
 .text.ARM_USARTx_GetVersion
                0x08203228       0x20 ./wiseconnect3_sdk_3.3.0/components/device/silabs/si91x/mcu/drivers/cmsis_driver/USART.o
                0x08203228                ARM_USARTx_GetVersion
 .text.ARM_ULP_UART_GetCapabilities
                0x08203248        0xc ./wiseconnect3_sdk_3.3.0/components/device/silabs/si91x/mcu/drivers/cmsis_driver/USART.o
 .text.ARM_ULP_UART_GetModemStatus
                0x08203254        0xc ./wiseconnect3_sdk_3.3.0/components/device/silabs/si91x/mcu/drivers/cmsis_driver/USART.o
 .text.ARM_ULP_UART_SetModemControl
                0x08203260        0xc ./wiseconnect3_sdk_3.3.0/components/device/silabs/si91x/mcu/drivers/cmsis_driver/USART.o
 .text.ARM_ULP_UART_GetStatus
                0x0820326c        0xc ./wiseconnect3_sdk_3.3.0/components/device/silabs/si91x/mcu/drivers/cmsis_driver/USART.o
 .text.ARM_ULP_UART_Control
                0x08203278       0x34 ./wiseconnect3_sdk_3.3.0/components/device/silabs/si91x/mcu/drivers/cmsis_driver/USART.o
 .text.ARM_ULP_UART_GetRxCount
                0x082032ac        0xc ./wiseconnect3_sdk_3.3.0/components/device/silabs/si91x/mcu/drivers/cmsis_driver/USART.o
 .text.ARM_ULP_UART_GetTxCount
                0x082032b8        0xc ./wiseconnect3_sdk_3.3.0/components/device/silabs/si91x/mcu/drivers/cmsis_driver/USART.o
 .text.ARM_ULP_UART_Transfer
                0x082032c4       0x54 ./wiseconnect3_sdk_3.3.0/components/device/silabs/si91x/mcu/drivers/cmsis_driver/USART.o
 .text.ARM_ULP_UART_Receive
                0x08203318       0x48 ./wiseconnect3_sdk_3.3.0/components/device/silabs/si91x/mcu/drivers/cmsis_driver/USART.o
 .text.ARM_ULP_UART_Send
                0x08203360       0x48 ./wiseconnect3_sdk_3.3.0/components/device/silabs/si91x/mcu/drivers/cmsis_driver/USART.o
 .text.ARM_ULP_UART_PowerControl
                0x082033a8       0x18 ./wiseconnect3_sdk_3.3.0/components/device/silabs/si91x/mcu/drivers/cmsis_driver/USART.o
 .text.ARM_ULP_UART_Uninitialize
                0x082033c0       0x1c ./wiseconnect3_sdk_3.3.0/components/device/silabs/si91x/mcu/drivers/cmsis_driver/USART.o
 .text.ARM_ULP_UART_Initialize
                0x082033dc       0x30 ./wiseconnect3_sdk_3.3.0/components/device/silabs/si91x/mcu/drivers/cmsis_driver/USART.o
 .text.IRQ038_Handler
                0x0820340c        0xc ./wiseconnect3_sdk_3.3.0/components/device/silabs/si91x/mcu/drivers/cmsis_driver/USART.o
                0x0820340c                IRQ038_Handler
 .text.IRQ039_Handler
                0x08203418        0xc ./wiseconnect3_sdk_3.3.0/components/device/silabs/si91x/mcu/drivers/cmsis_driver/USART.o
                0x08203418                IRQ039_Handler
 .text.IRQ012_Handler
                0x08203424        0xc ./wiseconnect3_sdk_3.3.0/components/device/silabs/si91x/mcu/drivers/cmsis_driver/USART.o
                0x08203424                IRQ012_Handler
 .text.RSI_ULPUartHandler
                0x08203430        0x4 ./wiseconnect3_sdk_3.3.0/components/device/silabs/si91x/mcu/drivers/cmsis_driver/USART.o
                0x08203430                RSI_ULPUartHandler
 .text.RSI_CLK_GetBaseClock
                0x08203434      0x50c ./wiseconnect3_sdk_3.3.0/components/device/silabs/si91x/mcu/drivers/peripheral_drivers/src/clock_update.o
                0x08203434                RSI_CLK_GetBaseClock
 .text.RSI_EGPIO_SetPinMux
                0x08203940       0x14 ./wiseconnect3_sdk_3.3.0/components/device/silabs/si91x/mcu/drivers/peripheral_drivers/src/rsi_gspi.o
 .text.RSI_EGPIO_HostPadsGpioModeEnable
                0x08203954       0x10 ./wiseconnect3_sdk_3.3.0/components/device/silabs/si91x/mcu/drivers/peripheral_drivers/src/rsi_gspi.o
 .text.RSI_EGPIO_PadSelectionEnable
                0x08203964       0x10 ./wiseconnect3_sdk_3.3.0/components/device/silabs/si91x/mcu/drivers/peripheral_drivers/src/rsi_gspi.o
 .text.RSI_EGPIO_PadReceiverEnable
                0x08203974       0x10 ./wiseconnect3_sdk_3.3.0/components/device/silabs/si91x/mcu/drivers/peripheral_drivers/src/rsi_gspi.o
 .text.RSI_EGPIO_UlpPadReceiverEnable
                0x08203984       0x10 ./wiseconnect3_sdk_3.3.0/components/device/silabs/si91x/mcu/drivers/peripheral_drivers/src/rsi_gspi.o
 .text.GSPI_Convert_Data_Width_To_Bytes
                0x08203994       0x14 ./wiseconnect3_sdk_3.3.0/components/device/silabs/si91x/mcu/drivers/peripheral_drivers/src/rsi_gspi.o
 .text.GSPI_Initialize
                0x082039a8      0x268 ./wiseconnect3_sdk_3.3.0/components/device/silabs/si91x/mcu/drivers/peripheral_drivers/src/rsi_gspi.o
                0x082039a8                GSPI_Initialize
 .text.GSPI_Uninitialize
                0x08203c10       0x50 ./wiseconnect3_sdk_3.3.0/components/device/silabs/si91x/mcu/drivers/peripheral_drivers/src/rsi_gspi.o
                0x08203c10                GSPI_Uninitialize
 .text.GSPI_PowerControl
                0x08203c60       0xf4 ./wiseconnect3_sdk_3.3.0/components/device/silabs/si91x/mcu/drivers/peripheral_drivers/src/rsi_gspi.o
                0x08203c60                GSPI_PowerControl
 .text.GSPI_Control
                0x08203d54      0x2e8 ./wiseconnect3_sdk_3.3.0/components/device/silabs/si91x/mcu/drivers/peripheral_drivers/src/rsi_gspi.o
                0x08203d54                GSPI_Control
 .text.GSPI_Send
                0x0820403c      0x184 ./wiseconnect3_sdk_3.3.0/components/device/silabs/si91x/mcu/drivers/peripheral_drivers/src/rsi_gspi.o
                0x0820403c                GSPI_Send
 .text.GSPI_Receive
                0x082041c0      0x200 ./wiseconnect3_sdk_3.3.0/components/device/silabs/si91x/mcu/drivers/peripheral_drivers/src/rsi_gspi.o
                0x082041c0                GSPI_Receive
 .text.GSPI_Transfer
                0x082043c0      0x228 ./wiseconnect3_sdk_3.3.0/components/device/silabs/si91x/mcu/drivers/peripheral_drivers/src/rsi_gspi.o
                0x082043c0                GSPI_Transfer
 .text.GSPI_GetDataCount
                0x082045e8       0x12 ./wiseconnect3_sdk_3.3.0/components/device/silabs/si91x/mcu/drivers/peripheral_drivers/src/rsi_gspi.o
                0x082045e8                GSPI_GetDataCount
 .text.GSPI_UDMA_Tx_Event
                0x082045fa       0x1c ./wiseconnect3_sdk_3.3.0/components/device/silabs/si91x/mcu/drivers/peripheral_drivers/src/rsi_gspi.o
                0x082045fa                GSPI_UDMA_Tx_Event
 .text.GSPI_UDMA_Rx_Event
                0x08204616       0x14 ./wiseconnect3_sdk_3.3.0/components/device/silabs/si91x/mcu/drivers/peripheral_drivers/src/rsi_gspi.o
                0x08204616                GSPI_UDMA_Rx_Event
 *fill*         0x0820462a        0x2 
 .text.GSPI_IRQHandler
                0x0820462c      0x12c ./wiseconnect3_sdk_3.3.0/components/device/silabs/si91x/mcu/drivers/peripheral_drivers/src/rsi_gspi.o
                0x0820462c                GSPI_IRQHandler
 .text.GSPI_GetStatus
                0x08204758       0x1e ./wiseconnect3_sdk_3.3.0/components/device/silabs/si91x/mcu/drivers/peripheral_drivers/src/rsi_gspi.o
                0x08204758                GSPI_GetStatus
 *fill*         0x08204776        0x2 
 .text.RSI_EGPIO_SetPinMux
                0x08204778       0x14 ./wiseconnect3_sdk_3.3.0/components/device/silabs/si91x/mcu/drivers/peripheral_drivers/src/rsi_usart.o
 .text.RSI_EGPIO_HostPadsGpioModeEnable
                0x0820478c       0x10 ./wiseconnect3_sdk_3.3.0/components/device/silabs/si91x/mcu/drivers/peripheral_drivers/src/rsi_usart.o
 .text.RSI_EGPIO_PadSelectionEnable
                0x0820479c       0x10 ./wiseconnect3_sdk_3.3.0/components/device/silabs/si91x/mcu/drivers/peripheral_drivers/src/rsi_usart.o
 .text.RSI_EGPIO_PadReceiverEnable
                0x082047ac       0x10 ./wiseconnect3_sdk_3.3.0/components/device/silabs/si91x/mcu/drivers/peripheral_drivers/src/rsi_usart.o
 .text.RSI_EGPIO_UlpPadReceiverEnable
                0x082047bc       0x10 ./wiseconnect3_sdk_3.3.0/components/device/silabs/si91x/mcu/drivers/peripheral_drivers/src/rsi_usart.o
 .text.UDMAx_ChannelDisable.isra.0
                0x082047cc        0xc ./wiseconnect3_sdk_3.3.0/components/device/silabs/si91x/mcu/drivers/peripheral_drivers/src/rsi_usart.o
 .text.UartIrqHandler
                0x082047d8      0x1f0 ./wiseconnect3_sdk_3.3.0/components/device/silabs/si91x/mcu/drivers/peripheral_drivers/src/rsi_usart.o
                0x082047d8                UartIrqHandler
 .text.USART_SetBaudrate
                0x082049c8       0x50 ./wiseconnect3_sdk_3.3.0/components/device/silabs/si91x/mcu/drivers/peripheral_drivers/src/rsi_usart.o
                0x082049c8                USART_SetBaudrate
 .text.USART_Initialize
                0x08204a18      0x120 ./wiseconnect3_sdk_3.3.0/components/device/silabs/si91x/mcu/drivers/peripheral_drivers/src/rsi_usart.o
                0x08204a18                USART_Initialize
 .text.USART_Uninitialize
                0x08204b38       0xa0 ./wiseconnect3_sdk_3.3.0/components/device/silabs/si91x/mcu/drivers/peripheral_drivers/src/rsi_usart.o
                0x08204b38                USART_Uninitialize
 .text.USART_PowerControl
                0x08204bd8      0x150 ./wiseconnect3_sdk_3.3.0/components/device/silabs/si91x/mcu/drivers/peripheral_drivers/src/rsi_usart.o
                0x08204bd8                USART_PowerControl
 .text.USART_Send_Data
                0x08204d28      0x15c ./wiseconnect3_sdk_3.3.0/components/device/silabs/si91x/mcu/drivers/peripheral_drivers/src/rsi_usart.o
                0x08204d28                USART_Send_Data
 .text.USART_Receive_Data
                0x08204e84      0x13c ./wiseconnect3_sdk_3.3.0/components/device/silabs/si91x/mcu/drivers/peripheral_drivers/src/rsi_usart.o
                0x08204e84                USART_Receive_Data
 .text.USART_Transfer
                0x08204fc0       0x72 ./wiseconnect3_sdk_3.3.0/components/device/silabs/si91x/mcu/drivers/peripheral_drivers/src/rsi_usart.o
                0x08204fc0                USART_Transfer
 .text.USART_GetTxCount
                0x08205032        0x6 ./wiseconnect3_sdk_3.3.0/components/device/silabs/si91x/mcu/drivers/peripheral_drivers/src/rsi_usart.o
                0x08205032                USART_GetTxCount
 .text.USART_GetRxCount
                0x08205038        0x6 ./wiseconnect3_sdk_3.3.0/components/device/silabs/si91x/mcu/drivers/peripheral_drivers/src/rsi_usart.o
                0x08205038                USART_GetRxCount
 *fill*         0x0820503e        0x2 
 .text.USART_Control
                0x08205040      0x8e8 ./wiseconnect3_sdk_3.3.0/components/device/silabs/si91x/mcu/drivers/peripheral_drivers/src/rsi_usart.o
                0x08205040                USART_Control
 .text.USART_GetStatus
                0x08205928       0x42 ./wiseconnect3_sdk_3.3.0/components/device/silabs/si91x/mcu/drivers/peripheral_drivers/src/rsi_usart.o
                0x08205928                USART_GetStatus
 *fill*         0x0820596a        0x2 
 .text.USART_SetModemControl
                0x0820596c       0x84 ./wiseconnect3_sdk_3.3.0/components/device/silabs/si91x/mcu/drivers/peripheral_drivers/src/rsi_usart.o
                0x0820596c                USART_SetModemControl
 .text.USART_GetModemStatus
                0x082059f0       0x5c ./wiseconnect3_sdk_3.3.0/components/device/silabs/si91x/mcu/drivers/peripheral_drivers/src/rsi_usart.o
                0x082059f0                USART_GetModemStatus
 .text.RSI_IPMU_UpdateIpmuCalibData_efuse
                0x08205a4c      0x300 ./wiseconnect3_sdk_3.3.0/components/device/silabs/si91x/mcu/drivers/systemlevel/src/rsi_ipmu.o
                0x08205a4c                RSI_IPMU_UpdateIpmuCalibData_efuse
 .text.RSI_Ipmu_Init
                0x08205d4c        0x4 ./wiseconnect3_sdk_3.3.0/components/device/silabs/si91x/mcu/drivers/systemlevel/src/rsi_ipmu.o
                0x08205d4c                RSI_Ipmu_Init
 .text.RSI_Configure_Ipmu_Mode
                0x08205d50        0x6 ./wiseconnect3_sdk_3.3.0/components/device/silabs/si91x/mcu/drivers/systemlevel/src/rsi_ipmu.o
                0x08205d50                RSI_Configure_Ipmu_Mode
 *fill*         0x08205d56        0x2 
 .text.RSI_IPMU_ClockMuxSel
                0x08205d58       0x40 ./wiseconnect3_sdk_3.3.0/components/device/silabs/si91x/mcu/drivers/systemlevel/src/rsi_ipmu.o
                0x08205d58                RSI_IPMU_ClockMuxSel
 .text.RSI_IPMU_ProgramConfigData
                0x08205d98       0xea ./wiseconnect3_sdk_3.3.0/components/device/silabs/si91x/mcu/drivers/systemlevel/src/rsi_ipmu.o
                0x08205d98                RSI_IPMU_ProgramConfigData
 *fill*         0x08205e82        0x2 
 .text.RSI_IPMU_M32rc_OscTrimEfuse
                0x08205e84       0x28 ./wiseconnect3_sdk_3.3.0/components/device/silabs/si91x/mcu/drivers/systemlevel/src/rsi_ipmu.o
                0x08205e84                RSI_IPMU_M32rc_OscTrimEfuse
 .text.RSI_IPMU_DBLR32M_TrimEfuse
                0x08205eac       0x18 ./wiseconnect3_sdk_3.3.0/components/device/silabs/si91x/mcu/drivers/systemlevel/src/rsi_ipmu.o
                0x08205eac                RSI_IPMU_DBLR32M_TrimEfuse
 .text.RSI_IPMU_M20roOsc_TrimEfuse
                0x08205ec4       0x28 ./wiseconnect3_sdk_3.3.0/components/device/silabs/si91x/mcu/drivers/systemlevel/src/rsi_ipmu.o
                0x08205ec4                RSI_IPMU_M20roOsc_TrimEfuse
 .text.RSI_IPMU_RO32khz_TrimEfuse
                0x08205eec       0x18 ./wiseconnect3_sdk_3.3.0/components/device/silabs/si91x/mcu/drivers/systemlevel/src/rsi_ipmu.o
                0x08205eec                RSI_IPMU_RO32khz_TrimEfuse
 .text.RSI_IPMU_RC32khz_TrimEfuse
                0x08205f04       0x18 ./wiseconnect3_sdk_3.3.0/components/device/silabs/si91x/mcu/drivers/systemlevel/src/rsi_ipmu.o
                0x08205f04                RSI_IPMU_RC32khz_TrimEfuse
 .text._usdelay
                0x08205f1c        0x6 ./wiseconnect3_sdk_3.3.0/components/device/silabs/si91x/mcu/drivers/systemlevel/src/rsi_pll.o
 *fill*         0x08205f22        0x2 
 .text.ulpss_enable_ref_clks
                0x08205f24       0xf8 ./wiseconnect3_sdk_3.3.0/components/device/silabs/si91x/mcu/drivers/systemlevel/src/rsi_pll.o
                0x08205f24                ulpss_enable_ref_clks
 .text.clk_m4ss_ref_clk_config
                0x0820601c       0xcc ./wiseconnect3_sdk_3.3.0/components/device/silabs/si91x/mcu/drivers/systemlevel/src/rsi_pll.o
                0x0820601c                clk_m4ss_ref_clk_config
 .text.ulpss_ref_clk_config
                0x082060e8       0xbc ./wiseconnect3_sdk_3.3.0/components/device/silabs/si91x/mcu/drivers/systemlevel/src/rsi_ulpss_clk.o
                0x082060e8                ulpss_ref_clk_config
 .text.UDMAx_DMAEnable
                0x082061a4        0xc ./wiseconnect3_sdk_3.3.0/components/device/silabs/si91x/mcu/drivers/unified_api/src/sl_si91x_dma.o
 .text.dma_internal_callback
                0x082061b0       0x30 ./wiseconnect3_sdk_3.3.0/components/device/silabs/si91x/mcu/drivers/unified_api/src/sl_si91x_dma.o
 .text.ulp_dma_internal_callback
                0x082061e0       0x30 ./wiseconnect3_sdk_3.3.0/components/device/silabs/si91x/mcu/drivers/unified_api/src/sl_si91x_dma.o
 .text.sl_si91x_dma_init
                0x08206210       0x5c ./wiseconnect3_sdk_3.3.0/components/device/silabs/si91x/mcu/drivers/unified_api/src/sl_si91x_dma.o
                0x08206210                sl_si91x_dma_init
 .text.sl_si91x_dma_allocate_channel
                0x0820626c       0xdc ./wiseconnect3_sdk_3.3.0/components/device/silabs/si91x/mcu/drivers/unified_api/src/sl_si91x_dma.o
                0x0820626c                sl_si91x_dma_allocate_channel
 .text.sl_si91x_dma_register_callbacks
                0x08206348       0x5c ./wiseconnect3_sdk_3.3.0/components/device/silabs/si91x/mcu/drivers/unified_api/src/sl_si91x_dma.o
                0x08206348                sl_si91x_dma_register_callbacks
 .text.sl_si91x_dma_unregister_callbacks
                0x082063a4       0x88 ./wiseconnect3_sdk_3.3.0/components/device/silabs/si91x/mcu/drivers/unified_api/src/sl_si91x_dma.o
                0x082063a4                sl_si91x_dma_unregister_callbacks
 .text.sl_si91x_dma_transfer
                0x0820642c      0x274 ./wiseconnect3_sdk_3.3.0/components/device/silabs/si91x/mcu/drivers/unified_api/src/sl_si91x_dma.o
                0x0820642c                sl_si91x_dma_transfer
 .text.sl_si91x_dma_channel_enable
                0x082066a0       0x38 ./wiseconnect3_sdk_3.3.0/components/device/silabs/si91x/mcu/drivers/unified_api/src/sl_si91x_dma.o
                0x082066a0                sl_si91x_dma_channel_enable
 .text.sl_si91x_dma_enable
                0x082066d8       0x30 ./wiseconnect3_sdk_3.3.0/components/device/silabs/si91x/mcu/drivers/unified_api/src/sl_si91x_dma.o
                0x082066d8                sl_si91x_dma_enable
 .text.convert_arm_to_sl_error_code
                0x08206708       0x14 ./wiseconnect3_sdk_3.3.0/components/device/silabs/si91x/mcu/drivers/unified_api/src/sl_si91x_gspi.o
 .text.set_slave_gpio_state.part.0
                0x0820671c       0x18 ./wiseconnect3_sdk_3.3.0/components/device/silabs/si91x/mcu/drivers/unified_api/src/sl_si91x_gspi.o
 .text.callback_event_handler
                0x08206734       0x34 ./wiseconnect3_sdk_3.3.0/components/device/silabs/si91x/mcu/drivers/unified_api/src/sl_si91x_gspi.o
 .text.sl_si91x_gspi_configure_clock
                0x08206768        0xa ./wiseconnect3_sdk_3.3.0/components/device/silabs/si91x/mcu/drivers/unified_api/src/sl_si91x_gspi.o
                0x08206768                sl_si91x_gspi_configure_clock
 *fill*         0x08206772        0x2 
 .text.sl_si91x_gspi_init
                0x08206774       0x48 ./wiseconnect3_sdk_3.3.0/components/device/silabs/si91x/mcu/drivers/unified_api/src/sl_si91x_gspi.o
                0x08206774                sl_si91x_gspi_init
 .text.sl_si91x_gspi_set_configuration
                0x082067bc       0x64 ./wiseconnect3_sdk_3.3.0/components/device/silabs/si91x/mcu/drivers/unified_api/src/sl_si91x_gspi.o
                0x082067bc                sl_si91x_gspi_set_configuration
 .text.sl_si91x_gspi_receive_data
                0x08206820       0x3c ./wiseconnect3_sdk_3.3.0/components/device/silabs/si91x/mcu/drivers/unified_api/src/sl_si91x_gspi.o
                0x08206820                sl_si91x_gspi_receive_data
 .text.sl_si91x_gspi_send_data
                0x0820685c       0x38 ./wiseconnect3_sdk_3.3.0/components/device/silabs/si91x/mcu/drivers/unified_api/src/sl_si91x_gspi.o
                0x0820685c                sl_si91x_gspi_send_data
 .text.sl_si91x_gspi_transfer_data
                0x08206894       0x3c ./wiseconnect3_sdk_3.3.0/components/device/silabs/si91x/mcu/drivers/unified_api/src/sl_si91x_gspi.o
                0x08206894                sl_si91x_gspi_transfer_data
 .text.sl_si91x_gspi_register_event_callback
                0x082068d0       0x38 ./wiseconnect3_sdk_3.3.0/components/device/silabs/si91x/mcu/drivers/unified_api/src/sl_si91x_gspi.o
                0x082068d0                sl_si91x_gspi_register_event_callback
 .text.sl_si91x_gspi_get_version
                0x08206908       0x16 ./wiseconnect3_sdk_3.3.0/components/device/silabs/si91x/mcu/drivers/unified_api/src/sl_si91x_gspi.o
                0x08206908                sl_si91x_gspi_get_version
 .text.sl_si91x_gspi_get_status
                0x0820691e        0x4 ./wiseconnect3_sdk_3.3.0/components/device/silabs/si91x/mcu/drivers/unified_api/src/sl_si91x_gspi.o
                0x0820691e                sl_si91x_gspi_get_status
 .text.sl_si91x_gspi_get_clock_division_factor
                0x08206922        0x8 ./wiseconnect3_sdk_3.3.0/components/device/silabs/si91x/mcu/drivers/unified_api/src/sl_si91x_gspi.o
                0x08206922                sl_si91x_gspi_get_clock_division_factor
 .text.sl_si91x_gspi_get_frame_length
                0x0820692a        0x4 ./wiseconnect3_sdk_3.3.0/components/device/silabs/si91x/mcu/drivers/unified_api/src/sl_si91x_gspi.o
                0x0820692a                sl_si91x_gspi_get_frame_length
 *fill*         0x0820692e        0x2 
 .text.IRQ002_Handler
                0x08206930       0x24 ./wiseconnect3_sdk_3.3.0/components/device/silabs/si91x/mcu/drivers/unified_api/src/sl_si91x_ulp_timer.o
                0x08206930                IRQ002_Handler
 .text.IRQ003_Handler
                0x08206954       0x24 ./wiseconnect3_sdk_3.3.0/components/device/silabs/si91x/mcu/drivers/unified_api/src/sl_si91x_ulp_timer.o
                0x08206954                IRQ003_Handler
 .text.IRQ004_Handler
                0x08206978       0x24 ./wiseconnect3_sdk_3.3.0/components/device/silabs/si91x/mcu/drivers/unified_api/src/sl_si91x_ulp_timer.o
                0x08206978                IRQ004_Handler
 .text.IRQ005_Handler
                0x0820699c       0x24 ./wiseconnect3_sdk_3.3.0/components/device/silabs/si91x/mcu/drivers/unified_api/src/sl_si91x_ulp_timer.o
                0x0820699c                IRQ005_Handler
 .text          0x082069c0      0x378 c:/siliconlabs/simplicitystudio/v5/developer/toolchains/gnu_arm/12.2.rel1_2023.7/bin/../lib/gcc/arm-none-eabi/12.2.1/thumb/v7e-m+fp/softfp\libgcc.a(_arm_addsubdf3.o)
                0x082069c0                __aeabi_drsub
                0x082069c8                __aeabi_dsub
                0x082069c8                __subdf3
                0x082069cc                __aeabi_dadd
                0x082069cc                __adddf3
                0x08206c44                __floatunsidf
                0x08206c44                __aeabi_ui2d
                0x08206c64                __floatsidf
                0x08206c64                __aeabi_i2d
                0x08206c88                __aeabi_f2d
                0x08206c88                __extendsfdf2
                0x08206ccc                __floatundidf
                0x08206ccc                __aeabi_ul2d
                0x08206cdc                __floatdidf
                0x08206cdc                __aeabi_l2d
 .text          0x08206d38      0x424 c:/siliconlabs/simplicitystudio/v5/developer/toolchains/gnu_arm/12.2.rel1_2023.7/bin/../lib/gcc/arm-none-eabi/12.2.1/thumb/v7e-m+fp/softfp\libgcc.a(_arm_muldivdf3.o)
                0x08206d38                __aeabi_dmul
                0x08206d38                __muldf3
                0x08206f8c                __divdf3
                0x08206f8c                __aeabi_ddiv
 .text          0x0820715c       0x40 c:/siliconlabs/simplicitystudio/v5/developer/toolchains/gnu_arm/12.2.rel1_2023.7/bin/../lib/gcc/arm-none-eabi/12.2.1/thumb/v7e-m+fp/softfp\libgcc.a(_arm_fixunsdfsi.o)
                0x0820715c                __aeabi_d2uiz
                0x0820715c                __fixunsdfsi
 .text.__cvt    0x0820719c       0xce c:/siliconlabs/simplicitystudio/v5/developer/toolchains/gnu_arm/12.2.rel1_2023.7/bin/../lib/gcc/arm-none-eabi/12.2.1/thumb/v7e-m+fp/softfp\libc_nano.a(libc_a-nano-vfprintf_float.o)
                0x0820719c                __cvt
 .text.__exponent
                0x0820726a       0x74 c:/siliconlabs/simplicitystudio/v5/developer/toolchains/gnu_arm/12.2.rel1_2023.7/bin/../lib/gcc/arm-none-eabi/12.2.1/thumb/v7e-m+fp/softfp\libc_nano.a(libc_a-nano-vfprintf_float.o)
                0x0820726a                __exponent
 *fill*         0x082072de        0x2 
 .text._printf_float
                0x082072e0      0x46c c:/siliconlabs/simplicitystudio/v5/developer/toolchains/gnu_arm/12.2.rel1_2023.7/bin/../lib/gcc/arm-none-eabi/12.2.1/thumb/v7e-m+fp/softfp\libc_nano.a(libc_a-nano-vfprintf_float.o)
                0x082072e0                _printf_float
 .text._printf_common
                0x0820774c       0xda c:/siliconlabs/simplicitystudio/v5/developer/toolchains/gnu_arm/12.2.rel1_2023.7/bin/../lib/gcc/arm-none-eabi/12.2.1/thumb/v7e-m+fp/softfp\libc_nano.a(libc_a-nano-vfprintf_i.o)
                0x0820774c                _printf_common
 *fill*         0x08207826        0x2 
 .text._printf_i
                0x08207828      0x258 c:/siliconlabs/simplicitystudio/v5/developer/toolchains/gnu_arm/12.2.rel1_2023.7/bin/../lib/gcc/arm-none-eabi/12.2.1/thumb/v7e-m+fp/softfp\libc_nano.a(libc_a-nano-vfprintf_i.o)
                0x08207828                _printf_i
 .text.std      0x08207a80       0x6c c:/siliconlabs/simplicitystudio/v5/developer/toolchains/gnu_arm/12.2.rel1_2023.7/bin/../lib/gcc/arm-none-eabi/12.2.1/thumb/v7e-m+fp/softfp\libc_nano.a(libc_a-findfp.o)
 .text.stdio_exit_handler
                0x08207aec       0x18 c:/siliconlabs/simplicitystudio/v5/developer/toolchains/gnu_arm/12.2.rel1_2023.7/bin/../lib/gcc/arm-none-eabi/12.2.1/thumb/v7e-m+fp/softfp\libc_nano.a(libc_a-findfp.o)
 .text.cleanup_stdio
                0x08207b04       0x40 c:/siliconlabs/simplicitystudio/v5/developer/toolchains/gnu_arm/12.2.rel1_2023.7/bin/../lib/gcc/arm-none-eabi/12.2.1/thumb/v7e-m+fp/softfp\libc_nano.a(libc_a-findfp.o)
 .text.global_stdio_init.part.0
                0x08207b44       0x3c c:/siliconlabs/simplicitystudio/v5/developer/toolchains/gnu_arm/12.2.rel1_2023.7/bin/../lib/gcc/arm-none-eabi/12.2.1/thumb/v7e-m+fp/softfp\libc_nano.a(libc_a-findfp.o)
 .text.__sfp_lock_acquire
                0x08207b80        0xc c:/siliconlabs/simplicitystudio/v5/developer/toolchains/gnu_arm/12.2.rel1_2023.7/bin/../lib/gcc/arm-none-eabi/12.2.1/thumb/v7e-m+fp/softfp\libc_nano.a(libc_a-findfp.o)
                0x08207b80                __sfp_lock_acquire
 .text.__sfp_lock_release
                0x08207b8c        0xc c:/siliconlabs/simplicitystudio/v5/developer/toolchains/gnu_arm/12.2.rel1_2023.7/bin/../lib/gcc/arm-none-eabi/12.2.1/thumb/v7e-m+fp/softfp\libc_nano.a(libc_a-findfp.o)
                0x08207b8c                __sfp_lock_release
 .text.__sinit  0x08207b98       0x30 c:/siliconlabs/simplicitystudio/v5/developer/toolchains/gnu_arm/12.2.rel1_2023.7/bin/../lib/gcc/arm-none-eabi/12.2.1/thumb/v7e-m+fp/softfp\libc_nano.a(libc_a-findfp.o)
                0x08207b98                __sinit
 .text._fwalk_sglue
                0x08207bc8       0x3c c:/siliconlabs/simplicitystudio/v5/developer/toolchains/gnu_arm/12.2.rel1_2023.7/bin/../lib/gcc/arm-none-eabi/12.2.1/thumb/v7e-m+fp/softfp\libc_nano.a(libc_a-fwalk.o)
                0x08207bc8                _fwalk_sglue
 .text.printf   0x08207c04       0x24 c:/siliconlabs/simplicitystudio/v5/developer/toolchains/gnu_arm/12.2.rel1_2023.7/bin/../lib/gcc/arm-none-eabi/12.2.1/thumb/v7e-m+fp/softfp\libc_nano.a(libc_a-printf.o)
                0x08207c04                iprintf
                0x08207c04                printf
 .text._puts_r  0x08207c28       0xaa c:/siliconlabs/simplicitystudio/v5/developer/toolchains/gnu_arm/12.2.rel1_2023.7/bin/../lib/gcc/arm-none-eabi/12.2.1/thumb/v7e-m+fp/softfp\libc_nano.a(libc_a-puts.o)
                0x08207c28                _puts_r
 *fill*         0x08207cd2        0x2 
 .text.puts     0x08207cd4       0x10 c:/siliconlabs/simplicitystudio/v5/developer/toolchains/gnu_arm/12.2.rel1_2023.7/bin/../lib/gcc/arm-none-eabi/12.2.1/thumb/v7e-m+fp/softfp\libc_nano.a(libc_a-puts.o)
                0x08207cd4                puts
 .text.__sread  0x08207ce4       0x22 c:/siliconlabs/simplicitystudio/v5/developer/toolchains/gnu_arm/12.2.rel1_2023.7/bin/../lib/gcc/arm-none-eabi/12.2.1/thumb/v7e-m+fp/softfp\libc_nano.a(libc_a-stdio.o)
                0x08207ce4                __sread
 .text.__swrite
                0x08207d06       0x38 c:/siliconlabs/simplicitystudio/v5/developer/toolchains/gnu_arm/12.2.rel1_2023.7/bin/../lib/gcc/arm-none-eabi/12.2.1/thumb/v7e-m+fp/softfp\libc_nano.a(libc_a-stdio.o)
                0x08207d06                __swrite
 .text.__sseek  0x08207d3e       0x24 c:/siliconlabs/simplicitystudio/v5/developer/toolchains/gnu_arm/12.2.rel1_2023.7/bin/../lib/gcc/arm-none-eabi/12.2.1/thumb/v7e-m+fp/softfp\libc_nano.a(libc_a-stdio.o)
                0x08207d3e                __sseek
 .text.__sclose
                0x08207d62        0x8 c:/siliconlabs/simplicitystudio/v5/developer/toolchains/gnu_arm/12.2.rel1_2023.7/bin/../lib/gcc/arm-none-eabi/12.2.1/thumb/v7e-m+fp/softfp\libc_nano.a(libc_a-stdio.o)
                0x08207d62                __sclose
 .text.__swbuf_r
                0x08207d6a       0x7c c:/siliconlabs/simplicitystudio/v5/developer/toolchains/gnu_arm/12.2.rel1_2023.7/bin/../lib/gcc/arm-none-eabi/12.2.1/thumb/v7e-m+fp/softfp\libc_nano.a(libc_a-wbuf.o)
                0x08207d6a                __swbuf_r
 *fill*         0x08207de6        0x2 
 .text.__swsetup_r
                0x08207de8       0xac c:/siliconlabs/simplicitystudio/v5/developer/toolchains/gnu_arm/12.2.rel1_2023.7/bin/../lib/gcc/arm-none-eabi/12.2.1/thumb/v7e-m+fp/softfp\libc_nano.a(libc_a-wsetup.o)
                0x08207de8                __swsetup_r
 .text.memset   0x08207e94       0x10 c:/siliconlabs/simplicitystudio/v5/developer/toolchains/gnu_arm/12.2.rel1_2023.7/bin/../lib/gcc/arm-none-eabi/12.2.1/thumb/v7e-m+fp/softfp\libc_nano.a(libc_a-memset.o)
                0x08207e94                memset
 .text._localeconv_r
                0x08207ea4        0x8 c:/siliconlabs/simplicitystudio/v5/developer/toolchains/gnu_arm/12.2.rel1_2023.7/bin/../lib/gcc/arm-none-eabi/12.2.1/thumb/v7e-m+fp/softfp\libc_nano.a(libc_a-localeconv.o)
                0x08207ea4                _localeconv_r
 .text._close_r
                0x08207eac       0x20 c:/siliconlabs/simplicitystudio/v5/developer/toolchains/gnu_arm/12.2.rel1_2023.7/bin/../lib/gcc/arm-none-eabi/12.2.1/thumb/v7e-m+fp/softfp\libc_nano.a(libc_a-closer.o)
                0x08207eac                _close_r
 .text._lseek_r
                0x08207ecc       0x24 c:/siliconlabs/simplicitystudio/v5/developer/toolchains/gnu_arm/12.2.rel1_2023.7/bin/../lib/gcc/arm-none-eabi/12.2.1/thumb/v7e-m+fp/softfp\libc_nano.a(libc_a-lseekr.o)
                0x08207ecc                _lseek_r
 .text._read_r  0x08207ef0       0x24 c:/siliconlabs/simplicitystudio/v5/developer/toolchains/gnu_arm/12.2.rel1_2023.7/bin/../lib/gcc/arm-none-eabi/12.2.1/thumb/v7e-m+fp/softfp\libc_nano.a(libc_a-readr.o)
                0x08207ef0                _read_r
 .text._write_r
                0x08207f14       0x24 c:/siliconlabs/simplicitystudio/v5/developer/toolchains/gnu_arm/12.2.rel1_2023.7/bin/../lib/gcc/arm-none-eabi/12.2.1/thumb/v7e-m+fp/softfp\libc_nano.a(libc_a-writer.o)
                0x08207f14                _write_r
 .text.__errno  0x08207f38        0xc c:/siliconlabs/simplicitystudio/v5/developer/toolchains/gnu_arm/12.2.rel1_2023.7/bin/../lib/gcc/arm-none-eabi/12.2.1/thumb/v7e-m+fp/softfp\libc_nano.a(libc_a-errno.o)
                0x08207f38                __errno
 .text.__retarget_lock_init_recursive
                0x08207f44        0x2 c:/siliconlabs/simplicitystudio/v5/developer/toolchains/gnu_arm/12.2.rel1_2023.7/bin/../lib/gcc/arm-none-eabi/12.2.1/thumb/v7e-m+fp/softfp\libc_nano.a(libc_a-lock.o)
                0x08207f44                __retarget_lock_init_recursive
 .text.__retarget_lock_acquire_recursive
                0x08207f46        0x2 c:/siliconlabs/simplicitystudio/v5/developer/toolchains/gnu_arm/12.2.rel1_2023.7/bin/../lib/gcc/arm-none-eabi/12.2.1/thumb/v7e-m+fp/softfp\libc_nano.a(libc_a-lock.o)
                0x08207f46                __retarget_lock_acquire_recursive
 .text.__retarget_lock_release_recursive
                0x08207f48        0x2 c:/siliconlabs/simplicitystudio/v5/developer/toolchains/gnu_arm/12.2.rel1_2023.7/bin/../lib/gcc/arm-none-eabi/12.2.1/thumb/v7e-m+fp/softfp\libc_nano.a(libc_a-lock.o)
                0x08207f48                __retarget_lock_release_recursive
 *fill*         0x08207f4a        0x6 
 .text          0x08207f50       0xa0 c:/siliconlabs/simplicitystudio/v5/developer/toolchains/gnu_arm/12.2.rel1_2023.7/bin/../lib/gcc/arm-none-eabi/12.2.1/thumb/v7e-m+fp/softfp\libc_nano.a(libc_a-memchr.o)
                0x08207f50                memchr
 .text          0x08207ff0       0x10 c:/siliconlabs/simplicitystudio/v5/developer/toolchains/gnu_arm/12.2.rel1_2023.7/bin/../lib/gcc/arm-none-eabi/12.2.1/thumb/v7e-m+fp/softfp\libc_nano.a(libc_a-strlen.o)
                0x08207ff0                strlen
 .text.quorem   0x08208000      0x110 c:/siliconlabs/simplicitystudio/v5/developer/toolchains/gnu_arm/12.2.rel1_2023.7/bin/../lib/gcc/arm-none-eabi/12.2.1/thumb/v7e-m+fp/softfp\libc_nano.a(libc_a-dtoa.o)
 .text._dtoa_r  0x08208110      0xc54 c:/siliconlabs/simplicitystudio/v5/developer/toolchains/gnu_arm/12.2.rel1_2023.7/bin/../lib/gcc/arm-none-eabi/12.2.1/thumb/v7e-m+fp/softfp\libc_nano.a(libc_a-dtoa.o)
                0x08208110                _dtoa_r
 .text._free_r  0x08208d64       0x94 c:/siliconlabs/simplicitystudio/v5/developer/toolchains/gnu_arm/12.2.rel1_2023.7/bin/../lib/gcc/arm-none-eabi/12.2.1/thumb/v7e-m+fp/softfp\libc_nano.a(libc_a-freer.o)
                0x08208d64                _free_r
 .text.malloc   0x08208df8       0x10 c:/siliconlabs/simplicitystudio/v5/developer/toolchains/gnu_arm/12.2.rel1_2023.7/bin/../lib/gcc/arm-none-eabi/12.2.1/thumb/v7e-m+fp/softfp\libc_nano.a(libc_a-malloc.o)
                0x08208df8                malloc
 .text.sbrk_aligned
                0x08208e08       0x44 c:/siliconlabs/simplicitystudio/v5/developer/toolchains/gnu_arm/12.2.rel1_2023.7/bin/../lib/gcc/arm-none-eabi/12.2.1/thumb/v7e-m+fp/softfp\libc_nano.a(libc_a-mallocr.o)
 .text._malloc_r
                0x08208e4c       0xf0 c:/siliconlabs/simplicitystudio/v5/developer/toolchains/gnu_arm/12.2.rel1_2023.7/bin/../lib/gcc/arm-none-eabi/12.2.1/thumb/v7e-m+fp/softfp\libc_nano.a(libc_a-mallocr.o)
                0x08208e4c                _malloc_r
 .text.__malloc_lock
                0x08208f3c        0xc c:/siliconlabs/simplicitystudio/v5/developer/toolchains/gnu_arm/12.2.rel1_2023.7/bin/../lib/gcc/arm-none-eabi/12.2.1/thumb/v7e-m+fp/softfp\libc_nano.a(libc_a-mlock.o)
                0x08208f3c                __malloc_lock
 .text.__malloc_unlock
                0x08208f48        0xc c:/siliconlabs/simplicitystudio/v5/developer/toolchains/gnu_arm/12.2.rel1_2023.7/bin/../lib/gcc/arm-none-eabi/12.2.1/thumb/v7e-m+fp/softfp\libc_nano.a(libc_a-mlock.o)
                0x08208f48                __malloc_unlock
 .text._Balloc  0x08208f54       0x80 c:/siliconlabs/simplicitystudio/v5/developer/toolchains/gnu_arm/12.2.rel1_2023.7/bin/../lib/gcc/arm-none-eabi/12.2.1/thumb/v7e-m+fp/softfp\libc_nano.a(libc_a-mprec.o)
                0x08208f54                _Balloc
 .text._Bfree   0x08208fd4       0x44 c:/siliconlabs/simplicitystudio/v5/developer/toolchains/gnu_arm/12.2.rel1_2023.7/bin/../lib/gcc/arm-none-eabi/12.2.1/thumb/v7e-m+fp/softfp\libc_nano.a(libc_a-mprec.o)
                0x08208fd4                _Bfree
 .text.__multadd
                0x08209018       0x8c c:/siliconlabs/simplicitystudio/v5/developer/toolchains/gnu_arm/12.2.rel1_2023.7/bin/../lib/gcc/arm-none-eabi/12.2.1/thumb/v7e-m+fp/softfp\libc_nano.a(libc_a-mprec.o)
                0x08209018                __multadd
 .text.__hi0bits
                0x082090a4       0x44 c:/siliconlabs/simplicitystudio/v5/developer/toolchains/gnu_arm/12.2.rel1_2023.7/bin/../lib/gcc/arm-none-eabi/12.2.1/thumb/v7e-m+fp/softfp\libc_nano.a(libc_a-mprec.o)
                0x082090a4                __hi0bits
 .text.__lo0bits
                0x082090e8       0x5a c:/siliconlabs/simplicitystudio/v5/developer/toolchains/gnu_arm/12.2.rel1_2023.7/bin/../lib/gcc/arm-none-eabi/12.2.1/thumb/v7e-m+fp/softfp\libc_nano.a(libc_a-mprec.o)
                0x082090e8                __lo0bits
 *fill*         0x08209142        0x2 
 .text.__i2b    0x08209144       0x2c c:/siliconlabs/simplicitystudio/v5/developer/toolchains/gnu_arm/12.2.rel1_2023.7/bin/../lib/gcc/arm-none-eabi/12.2.1/thumb/v7e-m+fp/softfp\libc_nano.a(libc_a-mprec.o)
                0x08209144                __i2b
 .text.__multiply
                0x08209170      0x154 c:/siliconlabs/simplicitystudio/v5/developer/toolchains/gnu_arm/12.2.rel1_2023.7/bin/../lib/gcc/arm-none-eabi/12.2.1/thumb/v7e-m+fp/softfp\libc_nano.a(libc_a-mprec.o)
                0x08209170                __multiply
 .text.__pow5mult
                0x082092c4       0xb4 c:/siliconlabs/simplicitystudio/v5/developer/toolchains/gnu_arm/12.2.rel1_2023.7/bin/../lib/gcc/arm-none-eabi/12.2.1/thumb/v7e-m+fp/softfp\libc_nano.a(libc_a-mprec.o)
                0x082092c4                __pow5mult
 .text.__lshift
                0x08209378       0xd8 c:/siliconlabs/simplicitystudio/v5/developer/toolchains/gnu_arm/12.2.rel1_2023.7/bin/../lib/gcc/arm-none-eabi/12.2.1/thumb/v7e-m+fp/softfp\libc_nano.a(libc_a-mprec.o)
                0x08209378                __lshift
 .text.__mcmp   0x08209450       0x36 c:/siliconlabs/simplicitystudio/v5/developer/toolchains/gnu_arm/12.2.rel1_2023.7/bin/../lib/gcc/arm-none-eabi/12.2.1/thumb/v7e-m+fp/softfp\libc_nano.a(libc_a-mprec.o)
                0x08209450                __mcmp
 *fill*         0x08209486        0x2 
 .text.__mdiff  0x08209488      0x128 c:/siliconlabs/simplicitystudio/v5/developer/toolchains/gnu_arm/12.2.rel1_2023.7/bin/../lib/gcc/arm-none-eabi/12.2.1/thumb/v7e-m+fp/softfp\libc_nano.a(libc_a-mprec.o)
                0x08209488                __mdiff
 .text.__d2b    0x082095b0       0xb0 c:/siliconlabs/simplicitystudio/v5/developer/toolchains/gnu_arm/12.2.rel1_2023.7/bin/../lib/gcc/arm-none-eabi/12.2.1/thumb/v7e-m+fp/softfp\libc_nano.a(libc_a-mprec.o)
                0x082095b0                __d2b
 .text.__sfputc_r
                0x08209660       0x2e c:/siliconlabs/simplicitystudio/v5/developer/toolchains/gnu_arm/12.2.rel1_2023.7/bin/../lib/gcc/arm-none-eabi/12.2.1/thumb/v7e-m+fp/softfp\libc_nano.a(libc_a-nano-vfprintf.o)
 .text.__sfputs_r
                0x0820968e       0x24 c:/siliconlabs/simplicitystudio/v5/developer/toolchains/gnu_arm/12.2.rel1_2023.7/bin/../lib/gcc/arm-none-eabi/12.2.1/thumb/v7e-m+fp/softfp\libc_nano.a(libc_a-nano-vfprintf.o)
                0x0820968e                __sfputs_r
 *fill*         0x082096b2        0x2 
 .text._vfprintf_r
                0x082096b4      0x230 c:/siliconlabs/simplicitystudio/v5/developer/toolchains/gnu_arm/12.2.rel1_2023.7/bin/../lib/gcc/arm-none-eabi/12.2.1/thumb/v7e-m+fp/softfp\libc_nano.a(libc_a-nano-vfprintf.o)
                0x082096b4                _vfprintf_r
                0x082096b4                _vfiprintf_r
 .text.__sflush_r
                0x082098e4      0x108 c:/siliconlabs/simplicitystudio/v5/developer/toolchains/gnu_arm/12.2.rel1_2023.7/bin/../lib/gcc/arm-none-eabi/12.2.1/thumb/v7e-m+fp/softfp\libc_nano.a(libc_a-fflush.o)
                0x082098e4                __sflush_r
 .text._fflush_r
                0x082099ec       0x50 c:/siliconlabs/simplicitystudio/v5/developer/toolchains/gnu_arm/12.2.rel1_2023.7/bin/../lib/gcc/arm-none-eabi/12.2.1/thumb/v7e-m+fp/softfp\libc_nano.a(libc_a-fflush.o)
                0x082099ec                _fflush_r
 .text.__swhatbuf_r
                0x08209a3c       0x4c c:/siliconlabs/simplicitystudio/v5/developer/toolchains/gnu_arm/12.2.rel1_2023.7/bin/../lib/gcc/arm-none-eabi/12.2.1/thumb/v7e-m+fp/softfp\libc_nano.a(libc_a-makebuf.o)
                0x08209a3c                __swhatbuf_r
 .text.__smakebuf_r
                0x08209a88       0x78 c:/siliconlabs/simplicitystudio/v5/developer/toolchains/gnu_arm/12.2.rel1_2023.7/bin/../lib/gcc/arm-none-eabi/12.2.1/thumb/v7e-m+fp/softfp\libc_nano.a(libc_a-makebuf.o)
                0x08209a88                __smakebuf_r
 .text._fstat_r
                0x08209b00       0x24 c:/siliconlabs/simplicitystudio/v5/developer/toolchains/gnu_arm/12.2.rel1_2023.7/bin/../lib/gcc/arm-none-eabi/12.2.1/thumb/v7e-m+fp/softfp\libc_nano.a(libc_a-fstatr.o)
                0x08209b00                _fstat_r
 .text._isatty_r
                0x08209b24       0x20 c:/siliconlabs/simplicitystudio/v5/developer/toolchains/gnu_arm/12.2.rel1_2023.7/bin/../lib/gcc/arm-none-eabi/12.2.1/thumb/v7e-m+fp/softfp\libc_nano.a(libc_a-isattyr.o)
                0x08209b24                _isatty_r
 .text._sbrk_r  0x08209b44       0x20 c:/siliconlabs/simplicitystudio/v5/developer/toolchains/gnu_arm/12.2.rel1_2023.7/bin/../lib/gcc/arm-none-eabi/12.2.1/thumb/v7e-m+fp/softfp\libc_nano.a(libc_a-sbrkr.o)
                0x08209b44                _sbrk_r
 .text.memcpy   0x08209b64       0x1c c:/siliconlabs/simplicitystudio/v5/developer/toolchains/gnu_arm/12.2.rel1_2023.7/bin/../lib/gcc/arm-none-eabi/12.2.1/thumb/v7e-m+fp/softfp\libc_nano.a(libc_a-memcpy-stub.o)
                0x08209b64                memcpy
 .text.__assert_func
                0x08209b80       0x3c c:/siliconlabs/simplicitystudio/v5/developer/toolchains/gnu_arm/12.2.rel1_2023.7/bin/../lib/gcc/arm-none-eabi/12.2.1/thumb/v7e-m+fp/softfp\libc_nano.a(libc_a-assert.o)
                0x08209b80                __assert_func
 .text._calloc_r
                0x08209bbc       0x28 c:/siliconlabs/simplicitystudio/v5/developer/toolchains/gnu_arm/12.2.rel1_2023.7/bin/../lib/gcc/arm-none-eabi/12.2.1/thumb/v7e-m+fp/softfp\libc_nano.a(libc_a-callocr.o)
                0x08209bbc                _calloc_r
 .text.__ascii_mbtowc
                0x08209be4       0x24 c:/siliconlabs/simplicitystudio/v5/developer/toolchains/gnu_arm/12.2.rel1_2023.7/bin/../lib/gcc/arm-none-eabi/12.2.1/thumb/v7e-m+fp/softfp\libc_nano.a(libc_a-mbtowc_r.o)
                0x08209be4                __ascii_mbtowc
 .text.__ascii_wctomb
                0x08209c08       0x1a c:/siliconlabs/simplicitystudio/v5/developer/toolchains/gnu_arm/12.2.rel1_2023.7/bin/../lib/gcc/arm-none-eabi/12.2.1/thumb/v7e-m+fp/softfp\libc_nano.a(libc_a-wctomb_r.o)
                0x08209c08                __ascii_wctomb
 *fill*         0x08209c22        0x2 
 .text.fprintf  0x08209c24       0x24 c:/siliconlabs/simplicitystudio/v5/developer/toolchains/gnu_arm/12.2.rel1_2023.7/bin/../lib/gcc/arm-none-eabi/12.2.1/thumb/v7e-m+fp/softfp\libc_nano.a(libc_a-fprintf.o)
                0x08209c24                fiprintf
                0x08209c24                fprintf
 .text.abort    0x08209c48        0xe c:/siliconlabs/simplicitystudio/v5/developer/toolchains/gnu_arm/12.2.rel1_2023.7/bin/../lib/gcc/arm-none-eabi/12.2.1/thumb/v7e-m+fp/softfp\libc_nano.a(libc_a-abort.o)
                0x08209c48                abort
 .text._raise_r
                0x08209c56       0x50 c:/siliconlabs/simplicitystudio/v5/developer/toolchains/gnu_arm/12.2.rel1_2023.7/bin/../lib/gcc/arm-none-eabi/12.2.1/thumb/v7e-m+fp/softfp\libc_nano.a(libc_a-signal.o)
                0x08209c56                _raise_r
 *fill*         0x08209ca6        0x2 
 .text.raise    0x08209ca8       0x10 c:/siliconlabs/simplicitystudio/v5/developer/toolchains/gnu_arm/12.2.rel1_2023.7/bin/../lib/gcc/arm-none-eabi/12.2.1/thumb/v7e-m+fp/softfp\libc_nano.a(libc_a-signal.o)
                0x08209ca8                raise
 .text._kill_r  0x08209cb8       0x24 c:/siliconlabs/simplicitystudio/v5/developer/toolchains/gnu_arm/12.2.rel1_2023.7/bin/../lib/gcc/arm-none-eabi/12.2.1/thumb/v7e-m+fp/softfp\libc_nano.a(libc_a-signalr.o)
                0x08209cb8                _kill_r
 .text._getpid_r
                0x08209cdc        0x4 c:/siliconlabs/simplicitystudio/v5/developer/toolchains/gnu_arm/12.2.rel1_2023.7/bin/../lib/gcc/arm-none-eabi/12.2.1/thumb/v7e-m+fp/softfp\libc_nano.a(libc_a-signalr.o)
                0x08209cdc                _getpid_r
 .text          0x08209ce0      0x110 c:/siliconlabs/simplicitystudio/v5/developer/toolchains/gnu_arm/12.2.rel1_2023.7/bin/../lib/gcc/arm-none-eabi/12.2.1/thumb/v7e-m+fp/softfp\libgcc.a(_arm_cmpdf2.o)
                0x08209ce0                __gtdf2
                0x08209ce0                __gedf2
                0x08209ce8                __ltdf2
                0x08209ce8                __ledf2
                0x08209cf0                __nedf2
                0x08209cf0                __eqdf2
                0x08209cf0                __cmpdf2
                0x08209d6c                __aeabi_cdrcmple
                0x08209d7c                __aeabi_cdcmpeq
                0x08209d7c                __aeabi_cdcmple
                0x08209d8c                __aeabi_dcmpeq
                0x08209da0                __aeabi_dcmplt
                0x08209db4                __aeabi_dcmple
                0x08209dc8                __aeabi_dcmpge
                0x08209ddc                __aeabi_dcmpgt
 .text          0x08209df0       0x2c c:/siliconlabs/simplicitystudio/v5/developer/toolchains/gnu_arm/12.2.rel1_2023.7/bin/../lib/gcc/arm-none-eabi/12.2.1/thumb/v7e-m+fp/softfp\libgcc.a(_arm_unorddf2.o)
                0x08209df0                __unorddf2
                0x08209df0                __aeabi_dcmpun
 .text          0x08209e1c       0x50 c:/siliconlabs/simplicitystudio/v5/developer/toolchains/gnu_arm/12.2.rel1_2023.7/bin/../lib/gcc/arm-none-eabi/12.2.1/thumb/v7e-m+fp/softfp\libgcc.a(_arm_fixdfsi.o)
                0x08209e1c                __aeabi_d2iz
                0x08209e1c                __fixdfsi
 *(.init)
 .init          0x08209e6c        0x4 c:/siliconlabs/simplicitystudio/v5/developer/toolchains/gnu_arm/12.2.rel1_2023.7/bin/../lib/gcc/arm-none-eabi/12.2.1/thumb/v7e-m+fp/softfp/crti.o
                0x08209e6c                _init
 .init          0x08209e70        0x8 c:/siliconlabs/simplicitystudio/v5/developer/toolchains/gnu_arm/12.2.rel1_2023.7/bin/../lib/gcc/arm-none-eabi/12.2.1/thumb/v7e-m+fp/softfp/crtn.o
 *(.fini)
 .fini          0x08209e78        0x4 c:/siliconlabs/simplicitystudio/v5/developer/toolchains/gnu_arm/12.2.rel1_2023.7/bin/../lib/gcc/arm-none-eabi/12.2.1/thumb/v7e-m+fp/softfp/crti.o
                0x08209e78                _fini
 .fini          0x08209e7c        0x8 c:/siliconlabs/simplicitystudio/v5/developer/toolchains/gnu_arm/12.2.rel1_2023.7/bin/../lib/gcc/arm-none-eabi/12.2.1/thumb/v7e-m+fp/softfp/crtn.o
 *crtbegin.o(.ctors)
 *crtbegin?.o(.ctors)
 *(EXCLUDE_FILE(*crtend.o *crtend?.o) .ctors)
 *(SORT_BY_NAME(.ctors.*))
 *(.ctors)
 *crtbegin.o(.dtors)
 *crtbegin?.o(.dtors)
 *(EXCLUDE_FILE(*crtend.o *crtend?.o) .dtors)
 *(SORT_BY_NAME(.dtors.*))
 *(.dtors)
 *(.rodata*)
 .rodata.compare_loop_back_data.str1.1
                0x08209e84       0x62 ./ampak_gspi_util.o
 .rodata.gspi_init.str1.1
                0x08209ee6      0x22d ./ampak_gspi_util.o
 .rodata.gspi_test_run.str1.1
                0x0820a113      0x13e ./ampak_gspi_util.o
 *fill*         0x0820a251        0x3 
 .rodata.Driver_GSPI_MASTER
                0x0820a254       0x2c ./wiseconnect3_sdk_3.3.0/components/device/silabs/si91x/mcu/drivers/cmsis_driver/GSPI.o
                0x0820a254                Driver_GSPI_MASTER
 .rodata.GSPI_MASTER_Resources
                0x0820a280       0x3c ./wiseconnect3_sdk_3.3.0/components/device/silabs/si91x/mcu/drivers/cmsis_driver/GSPI.o
 .rodata.gspi_miso
                0x0820a2bc        0x4 ./wiseconnect3_sdk_3.3.0/components/device/silabs/si91x/mcu/drivers/cmsis_driver/GSPI.o
 .rodata.gspi_mosi
                0x0820a2c0        0x4 ./wiseconnect3_sdk_3.3.0/components/device/silabs/si91x/mcu/drivers/cmsis_driver/GSPI.o
 .rodata.gspi_cs2
                0x0820a2c4        0x4 ./wiseconnect3_sdk_3.3.0/components/device/silabs/si91x/mcu/drivers/cmsis_driver/GSPI.o
 .rodata.gspi_cs1
                0x0820a2c8        0x4 ./wiseconnect3_sdk_3.3.0/components/device/silabs/si91x/mcu/drivers/cmsis_driver/GSPI.o
 .rodata.gspi_cs0
                0x0820a2cc        0x4 ./wiseconnect3_sdk_3.3.0/components/device/silabs/si91x/mcu/drivers/cmsis_driver/GSPI.o
 .rodata.gspi_clock
                0x0820a2d0        0x4 ./wiseconnect3_sdk_3.3.0/components/device/silabs/si91x/mcu/drivers/cmsis_driver/GSPI.o
 .rodata.DriverVersion
                0x0820a2d4        0x4 ./wiseconnect3_sdk_3.3.0/components/device/silabs/si91x/mcu/drivers/cmsis_driver/GSPI.o
 .rodata.Driver_ULP_UART
                0x0820a2d8       0x38 ./wiseconnect3_sdk_3.3.0/components/device/silabs/si91x/mcu/drivers/cmsis_driver/USART.o
                0x0820a2d8                Driver_ULP_UART
 .rodata.ulp_uart_rts
                0x0820a310        0x4 ./wiseconnect3_sdk_3.3.0/components/device/silabs/si91x/mcu/drivers/cmsis_driver/USART.o
 .rodata.ulp_uart_cts
                0x0820a314        0x4 ./wiseconnect3_sdk_3.3.0/components/device/silabs/si91x/mcu/drivers/cmsis_driver/USART.o
 .rodata.ulp_uart_rx
                0x0820a318        0x4 ./wiseconnect3_sdk_3.3.0/components/device/silabs/si91x/mcu/drivers/cmsis_driver/USART.o
 .rodata.ulp_uart_tx
                0x0820a31c        0x4 ./wiseconnect3_sdk_3.3.0/components/device/silabs/si91x/mcu/drivers/cmsis_driver/USART.o
 .rodata.uart1_rts
                0x0820a320        0x4 ./wiseconnect3_sdk_3.3.0/components/device/silabs/si91x/mcu/drivers/cmsis_driver/USART.o
 .rodata.uart1_cts
                0x0820a324        0x4 ./wiseconnect3_sdk_3.3.0/components/device/silabs/si91x/mcu/drivers/cmsis_driver/USART.o
 .rodata.uart1_rx
                0x0820a328        0x4 ./wiseconnect3_sdk_3.3.0/components/device/silabs/si91x/mcu/drivers/cmsis_driver/USART.o
 .rodata.uart1_tx
                0x0820a32c        0x4 ./wiseconnect3_sdk_3.3.0/components/device/silabs/si91x/mcu/drivers/cmsis_driver/USART.o
 .rodata.usart0_ir_rx
                0x0820a330        0x4 ./wiseconnect3_sdk_3.3.0/components/device/silabs/si91x/mcu/drivers/cmsis_driver/USART.o
 .rodata.usart0_ir_tx
                0x0820a334        0x4 ./wiseconnect3_sdk_3.3.0/components/device/silabs/si91x/mcu/drivers/cmsis_driver/USART.o
 .rodata.usart0_rts
                0x0820a338        0x4 ./wiseconnect3_sdk_3.3.0/components/device/silabs/si91x/mcu/drivers/cmsis_driver/USART.o
 .rodata.usart0_cts
                0x0820a33c        0x4 ./wiseconnect3_sdk_3.3.0/components/device/silabs/si91x/mcu/drivers/cmsis_driver/USART.o
 .rodata.usart0_rx
                0x0820a340        0x4 ./wiseconnect3_sdk_3.3.0/components/device/silabs/si91x/mcu/drivers/cmsis_driver/USART.o
 .rodata.usart0_tx
                0x0820a344        0x4 ./wiseconnect3_sdk_3.3.0/components/device/silabs/si91x/mcu/drivers/cmsis_driver/USART.o
 .rodata.usart0_clock
                0x0820a348        0x4 ./wiseconnect3_sdk_3.3.0/components/device/silabs/si91x/mcu/drivers/cmsis_driver/USART.o
 .rodata.UsartDriverVersion
                0x0820a34c        0x4 ./wiseconnect3_sdk_3.3.0/components/device/silabs/si91x/mcu/drivers/cmsis_driver/USART.o
 .rodata.CSWTCH.9
                0x0820a350        0xc ./wiseconnect3_sdk_3.3.0/components/device/silabs/si91x/mcu/drivers/unified_api/src/sl_si91x_gspi.o
 .rodata._printf_float.str1.1
                0x0820a35c       0x12 c:/siliconlabs/simplicitystudio/v5/developer/toolchains/gnu_arm/12.2.rel1_2023.7/bin/../lib/gcc/arm-none-eabi/12.2.1/thumb/v7e-m+fp/softfp\libc_nano.a(libc_a-nano-vfprintf_float.o)
 .rodata._printf_i.str1.1
                0x0820a36e       0x22 c:/siliconlabs/simplicitystudio/v5/developer/toolchains/gnu_arm/12.2.rel1_2023.7/bin/../lib/gcc/arm-none-eabi/12.2.1/thumb/v7e-m+fp/softfp\libc_nano.a(libc_a-nano-vfprintf_i.o)
 .rodata._dtoa_r.str1.1
                0x0820a390       0x8e c:/siliconlabs/simplicitystudio/v5/developer/toolchains/gnu_arm/12.2.rel1_2023.7/bin/../lib/gcc/arm-none-eabi/12.2.1/thumb/v7e-m+fp/softfp\libc_nano.a(libc_a-dtoa.o)
                                 0x90 (size before relaxing)
 .rodata._Balloc.str1.1
                0x0820a41e       0x5a c:/siliconlabs/simplicitystudio/v5/developer/toolchains/gnu_arm/12.2.rel1_2023.7/bin/../lib/gcc/arm-none-eabi/12.2.1/thumb/v7e-m+fp/softfp\libc_nano.a(libc_a-mprec.o)
                                 0x71 (size before relaxing)
 .rodata.__multadd.str1.1
                0x0820a478       0x11 c:/siliconlabs/simplicitystudio/v5/developer/toolchains/gnu_arm/12.2.rel1_2023.7/bin/../lib/gcc/arm-none-eabi/12.2.1/thumb/v7e-m+fp/softfp\libc_nano.a(libc_a-mprec.o)
 .rodata.p05.0  0x0820a478        0xc c:/siliconlabs/simplicitystudio/v5/developer/toolchains/gnu_arm/12.2.rel1_2023.7/bin/../lib/gcc/arm-none-eabi/12.2.1/thumb/v7e-m+fp/softfp\libc_nano.a(libc_a-mprec.o)
 *fill*         0x0820a484        0x4 
 .rodata.__mprec_bigtens
                0x0820a488       0x28 c:/siliconlabs/simplicitystudio/v5/developer/toolchains/gnu_arm/12.2.rel1_2023.7/bin/../lib/gcc/arm-none-eabi/12.2.1/thumb/v7e-m+fp/softfp\libc_nano.a(libc_a-mprec.o)
                0x0820a488                __mprec_bigtens
 .rodata.__mprec_tens
                0x0820a4b0       0xc8 c:/siliconlabs/simplicitystudio/v5/developer/toolchains/gnu_arm/12.2.rel1_2023.7/bin/../lib/gcc/arm-none-eabi/12.2.1/thumb/v7e-m+fp/softfp\libc_nano.a(libc_a-mprec.o)
                0x0820a4b0                __mprec_tens
 .rodata._vfprintf_r.str1.1
                0x0820a578       0x11 c:/siliconlabs/simplicitystudio/v5/developer/toolchains/gnu_arm/12.2.rel1_2023.7/bin/../lib/gcc/arm-none-eabi/12.2.1/thumb/v7e-m+fp/softfp\libc_nano.a(libc_a-nano-vfprintf.o)
 .rodata._setlocale_r.str1.1
                0x0820a589        0x8 c:/siliconlabs/simplicitystudio/v5/developer/toolchains/gnu_arm/12.2.rel1_2023.7/bin/../lib/gcc/arm-none-eabi/12.2.1/thumb/v7e-m+fp/softfp\libc_nano.a(libc_a-locale.o)
                                  0x9 (size before relaxing)
 .rodata.str1.1
                0x0820a591        0x2 c:/siliconlabs/simplicitystudio/v5/developer/toolchains/gnu_arm/12.2.rel1_2023.7/bin/../lib/gcc/arm-none-eabi/12.2.1/thumb/v7e-m+fp/softfp\libc_nano.a(libc_a-locale.o)
 .rodata.__assert_func.str1.1
                0x0820a593       0x3c c:/siliconlabs/simplicitystudio/v5/developer/toolchains/gnu_arm/12.2.rel1_2023.7/bin/../lib/gcc/arm-none-eabi/12.2.1/thumb/v7e-m+fp/softfp\libc_nano.a(libc_a-assert.o)
                                 0x3d (size before relaxing)
 .rodata._ctype_
                0x0820a5cf      0x101 c:/siliconlabs/simplicitystudio/v5/developer/toolchains/gnu_arm/12.2.rel1_2023.7/bin/../lib/gcc/arm-none-eabi/12.2.1/thumb/v7e-m+fp/softfp\libc_nano.a(libc_a-ctype_.o)
                0x0820a5cf                _ctype_
 *(.eh_fram e*)

.eh_frame       0x0820a6d0        0x0
 .eh_frame      0x0820a6d0        0x0 c:/siliconlabs/simplicitystudio/v5/developer/toolchains/gnu_arm/12.2.rel1_2023.7/bin/../lib/gcc/arm-none-eabi/12.2.1/thumb/v7e-m+fp/softfp/crtbegin.o

.glue_7         0x0820a6d0        0x0
 .glue_7        0x0820a6d0        0x0 linker stubs

.glue_7t        0x0820a6d0        0x0
 .glue_7t       0x0820a6d0        0x0 linker stubs

.vfp11_veneer   0x0820a6d0        0x0
 .vfp11_veneer  0x0820a6d0        0x0 linker stubs

.v4_bx          0x0820a6d0        0x0
 .v4_bx         0x0820a6d0        0x0 linker stubs

.iplt           0x0820a6d0        0x0
 .iplt          0x0820a6d0        0x0 c:/siliconlabs/simplicitystudio/v5/developer/toolchains/gnu_arm/12.2.rel1_2023.7/bin/../lib/gcc/arm-none-eabi/12.2.1/thumb/v7e-m+fp/softfp/crtbegin.o

.common_tcm_code
                0x0820a6d0      0x21c
 .common_tcm_code
                0x0820a6d0      0x21c ./wiseconnect3_sdk_3.3.0/components/device/silabs/si91x/mcu/core/chip/src/iPMU_prog/iPMU_dotc/ipmu_apis.o
                0x0820a6d0                update_ipmu_calib_data

.rel.dyn        0x0820a8ec        0x0
 .rel.iplt      0x0820a8ec        0x0 c:/siliconlabs/simplicitystudio/v5/developer/toolchains/gnu_arm/12.2.rel1_2023.7/bin/../lib/gcc/arm-none-eabi/12.2.1/thumb/v7e-m+fp/softfp/crtbegin.o

.ARM.extab
 *(.ARM.extab* .gnu.linkonce.armextab.*)
                0x0820a8ec                __exidx_start = .

.ARM.exidx
 *(.ARM.exidx* .gnu.linkonce.armexidx.*)
                0x0820a8ec                __exidx_end = .
                0x0820a8ec                __etext = .
                0x0820a8ec                _sidata = __etext

.data           0x0000000c      0x788 load address 0x0820a8ec
                0x0000000c                __data_start__ = .
                0x0000000c                _sdata = __data_start__
 *(.data*)
 .data.begin_transmission.0
                0x0000000c        0x1 ./ampak_gspi_util.o
 *fill*         0x0000000d        0x1 
 .data.gspi_division_factor
                0x0000000e        0x2 ./ampak_gspi_util.o
 .data.retnLP_volt_trim_efuse
                0x00000010        0xc ./wiseconnect3_sdk_3.3.0/components/device/silabs/si91x/mcu/core/chip/src/iPMU_prog/iPMU_dotc/rsi_system_config_917.o
                0x00000010                retnLP_volt_trim_efuse
 .data.hpldo_volt_trim_efuse
                0x0000001c        0xc ./wiseconnect3_sdk_3.3.0/components/device/silabs/si91x/mcu/core/chip/src/iPMU_prog/iPMU_dotc/rsi_system_config_917.o
                0x0000001c                hpldo_volt_trim_efuse
 .data.scdc_volt_trim_efuse
                0x00000028        0xc ./wiseconnect3_sdk_3.3.0/components/device/silabs/si91x/mcu/core/chip/src/iPMU_prog/iPMU_dotc/rsi_system_config_917.o
                0x00000028                scdc_volt_trim_efuse
 .data.dpwm_freq_trim_efuse
                0x00000034        0xc ./wiseconnect3_sdk_3.3.0/components/device/silabs/si91x/mcu/core/chip/src/iPMU_prog/iPMU_dotc/rsi_system_config_917.o
                0x00000034                dpwm_freq_trim_efuse
 .data.ldosoc_trim_efuse
                0x00000040        0xc ./wiseconnect3_sdk_3.3.0/components/device/silabs/si91x/mcu/core/chip/src/iPMU_prog/iPMU_dotc/rsi_system_config_917.o
                0x00000040                ldosoc_trim_efuse
 .data.buck_trim_efuse
                0x0000004c        0xc ./wiseconnect3_sdk_3.3.0/components/device/silabs/si91x/mcu/core/chip/src/iPMU_prog/iPMU_dotc/rsi_system_config_917.o
                0x0000004c                buck_trim_efuse
 .data.auxadc_gain_se_efuse
                0x00000058        0xc ./wiseconnect3_sdk_3.3.0/components/device/silabs/si91x/mcu/core/chip/src/iPMU_prog/iPMU_dotc/rsi_system_config_917.o
                0x00000058                auxadc_gain_se_efuse
 .data.auxadc_off_se_efuse
                0x00000064        0xc ./wiseconnect3_sdk_3.3.0/components/device/silabs/si91x/mcu/core/chip/src/iPMU_prog/iPMU_dotc/rsi_system_config_917.o
                0x00000064                auxadc_off_se_efuse
 .data.auxadc_gain_diff_efuse
                0x00000070        0xc ./wiseconnect3_sdk_3.3.0/components/device/silabs/si91x/mcu/core/chip/src/iPMU_prog/iPMU_dotc/rsi_system_config_917.o
                0x00000070                auxadc_gain_diff_efuse
 .data.auxadc_off_diff_efuse
                0x0000007c        0xc ./wiseconnect3_sdk_3.3.0/components/device/silabs/si91x/mcu/core/chip/src/iPMU_prog/iPMU_dotc/rsi_system_config_917.o
                0x0000007c                auxadc_off_diff_efuse
 .data.delvbe_tsbjt_efuse
                0x00000088        0xc ./wiseconnect3_sdk_3.3.0/components/device/silabs/si91x/mcu/core/chip/src/iPMU_prog/iPMU_dotc/rsi_system_config_917.o
                0x00000088                delvbe_tsbjt_efuse
 .data.vbg_tsbjt_efuse
                0x00000094        0xc ./wiseconnect3_sdk_3.3.0/components/device/silabs/si91x/mcu/core/chip/src/iPMU_prog/iPMU_dotc/rsi_system_config_917.o
                0x00000094                vbg_tsbjt_efuse
 .data.ro_ts_efuse
                0x000000a0        0xc ./wiseconnect3_sdk_3.3.0/components/device/silabs/si91x/mcu/core/chip/src/iPMU_prog/iPMU_dotc/rsi_system_config_917.o
                0x000000a0                ro_ts_efuse
 .data.vbatt_status_trim_efuse
                0x000000ac        0xc ./wiseconnect3_sdk_3.3.0/components/device/silabs/si91x/mcu/core/chip/src/iPMU_prog/iPMU_dotc/rsi_system_config_917.o
                0x000000ac                vbatt_status_trim_efuse
 .data.m20ro_osc_trim_efuse
                0x000000b8        0xc ./wiseconnect3_sdk_3.3.0/components/device/silabs/si91x/mcu/core/chip/src/iPMU_prog/iPMU_dotc/rsi_system_config_917.o
                0x000000b8                m20ro_osc_trim_efuse
 .data.xtal2_bias_efuse
                0x000000c4        0xc ./wiseconnect3_sdk_3.3.0/components/device/silabs/si91x/mcu/core/chip/src/iPMU_prog/iPMU_dotc/rsi_system_config_917.o
                0x000000c4                xtal2_bias_efuse
 .data.xtal1_bias_efuse
                0x000000d0        0xc ./wiseconnect3_sdk_3.3.0/components/device/silabs/si91x/mcu/core/chip/src/iPMU_prog/iPMU_dotc/rsi_system_config_917.o
                0x000000d0                xtal1_bias_efuse
 .data.rc_32khz_trim_efuse
                0x000000dc       0x1c ./wiseconnect3_sdk_3.3.0/components/device/silabs/si91x/mcu/core/chip/src/iPMU_prog/iPMU_dotc/rsi_system_config_917.o
                0x000000dc                rc_32khz_trim_efuse
 .data.rc_64khz_trim_efuse
                0x000000f8       0x1c ./wiseconnect3_sdk_3.3.0/components/device/silabs/si91x/mcu/core/chip/src/iPMU_prog/iPMU_dotc/rsi_system_config_917.o
                0x000000f8                rc_64khz_trim_efuse
 .data.rc_16khz_trim_efuse
                0x00000114       0x1c ./wiseconnect3_sdk_3.3.0/components/device/silabs/si91x/mcu/core/chip/src/iPMU_prog/iPMU_dotc/rsi_system_config_917.o
                0x00000114                rc_16khz_trim_efuse
 .data.ro_32khz_trim00_efuse
                0x00000130        0xc ./wiseconnect3_sdk_3.3.0/components/device/silabs/si91x/mcu/core/chip/src/iPMU_prog/iPMU_dotc/rsi_system_config_917.o
                0x00000130                ro_32khz_trim00_efuse
 .data.ro_32khz_trim_efuse
                0x0000013c        0xc ./wiseconnect3_sdk_3.3.0/components/device/silabs/si91x/mcu/core/chip/src/iPMU_prog/iPMU_dotc/rsi_system_config_917.o
                0x0000013c                ro_32khz_trim_efuse
 .data.dblr_32m_trim_efuse
                0x00000148        0xc ./wiseconnect3_sdk_3.3.0/components/device/silabs/si91x/mcu/core/chip/src/iPMU_prog/iPMU_dotc/rsi_system_config_917.o
                0x00000148                dblr_32m_trim_efuse
 .data.m20rc_osc_trim_efuse
                0x00000154        0xc ./wiseconnect3_sdk_3.3.0/components/device/silabs/si91x/mcu/core/chip/src/iPMU_prog/iPMU_dotc/rsi_system_config_917.o
                0x00000154                m20rc_osc_trim_efuse
 .data.m32rc_osc_trim_efuse
                0x00000160        0xc ./wiseconnect3_sdk_3.3.0/components/device/silabs/si91x/mcu/core/chip/src/iPMU_prog/iPMU_dotc/rsi_system_config_917.o
                0x00000160                m32rc_osc_trim_efuse
 .data.blackout_trim_efuse
                0x0000016c        0xc ./wiseconnect3_sdk_3.3.0/components/device/silabs/si91x/mcu/core/chip/src/iPMU_prog/iPMU_dotc/rsi_system_config_917.o
                0x0000016c                blackout_trim_efuse
 .data.bg_trim_efuse
                0x00000178       0x14 ./wiseconnect3_sdk_3.3.0/components/device/silabs/si91x/mcu/core/chip/src/iPMU_prog/iPMU_dotc/rsi_system_config_917.o
                0x00000178                bg_trim_efuse
 .data.poc_bias_efuse
                0x0000018c        0xc ./wiseconnect3_sdk_3.3.0/components/device/silabs/si91x/mcu/core/chip/src/iPMU_prog/iPMU_dotc/rsi_system_config_917.o
                0x0000018c                poc_bias_efuse
 .data.ro_tempsense_config
                0x00000198        0xc ./wiseconnect3_sdk_3.3.0/components/device/silabs/si91x/mcu/core/chip/src/iPMU_prog/iPMU_dotc/rsi_system_config_917.o
                0x00000198                ro_tempsense_config
 .data.retn_ldo_lpmode
                0x000001a4       0x14 ./wiseconnect3_sdk_3.3.0/components/device/silabs/si91x/mcu/core/chip/src/iPMU_prog/iPMU_dotc/rsi_system_config_917.o
                0x000001a4                retn_ldo_lpmode
 .data.hpldo_tran
                0x000001b8        0xc ./wiseconnect3_sdk_3.3.0/components/device/silabs/si91x/mcu/core/chip/src/iPMU_prog/iPMU_dotc/rsi_system_config_917.o
                0x000001b8                hpldo_tran
 .data.lp_scdc_extcapmode
                0x000001c4       0x2c ./wiseconnect3_sdk_3.3.0/components/device/silabs/si91x/mcu/core/chip/src/iPMU_prog/iPMU_dotc/rsi_system_config_917.o
                0x000001c4                lp_scdc_extcapmode
 .data.ipmu_scdc_enable
                0x000001f0       0x14 ./wiseconnect3_sdk_3.3.0/components/device/silabs/si91x/mcu/core/chip/src/iPMU_prog/iPMU_dotc/rsi_system_config_917.o
                0x000001f0                ipmu_scdc_enable
 .data.LDOFLASH_BYPASS
                0x00000204        0xc ./wiseconnect3_sdk_3.3.0/components/device/silabs/si91x/mcu/core/chip/src/iPMU_prog/iPMU_dotc/rsi_system_config_917.o
                0x00000204                LDOFLASH_BYPASS
 .data.buck_fast_transient_duty_1p8
                0x00000210       0x1c ./wiseconnect3_sdk_3.3.0/components/device/silabs/si91x/mcu/core/chip/src/iPMU_prog/iPMU_dotc/rsi_system_config_917.o
                0x00000210                buck_fast_transient_duty_1p8
 .data.pmu_common_config
                0x0000022c       0x9c ./wiseconnect3_sdk_3.3.0/components/device/silabs/si91x/mcu/core/chip/src/iPMU_prog/iPMU_dotc/rsi_system_config_917.o
                0x0000022c                pmu_common_config
 .data.ipmu_common_config
                0x000002c8       0x4c ./wiseconnect3_sdk_3.3.0/components/device/silabs/si91x/mcu/core/chip/src/iPMU_prog/iPMU_dotc/rsi_system_config_917.o
                0x000002c8                ipmu_common_config
 .data.SystemCoreClock
                0x00000314        0x4 ./wiseconnect3_sdk_3.3.0/components/device/silabs/si91x/mcu/core/chip/src/system_si91x.o
                0x00000314                SystemCoreClock
 .data.heap_end.0
                0x00000318        0x4 ./wiseconnect3_sdk_3.3.0/components/device/silabs/si91x/mcu/core/common/src/syscalls.o
 .data.gspi_slavenumber
                0x0000031c        0x1 ./wiseconnect3_sdk_3.3.0/components/device/silabs/si91x/mcu/drivers/cmsis_driver/GSPI.o
                0x0000031c                gspi_slavenumber
 *fill*         0x0000031d        0x3 
 .data.GSPI_MASTER_UDMA_RX_CHNL
                0x00000320       0x24 ./wiseconnect3_sdk_3.3.0/components/device/silabs/si91x/mcu/drivers/cmsis_driver/GSPI.o
 .data.GSPI_MASTER_UDMA_TX_CHNL
                0x00000344       0x24 ./wiseconnect3_sdk_3.3.0/components/device/silabs/si91x/mcu/drivers/cmsis_driver/GSPI.o
 .data.gspi_threshold
                0x00000368        0x4 ./wiseconnect3_sdk_3.3.0/components/device/silabs/si91x/mcu/drivers/cmsis_driver/GSPI.o
 .data.UDMA1_Resources
                0x0000036c        0xc ./wiseconnect3_sdk_3.3.0/components/device/silabs/si91x/mcu/drivers/cmsis_driver/UDMA.o
                0x0000036c                UDMA1_Resources
 .data.UDMA0_Resources
                0x00000378        0xc ./wiseconnect3_sdk_3.3.0/components/device/silabs/si91x/mcu/drivers/cmsis_driver/UDMA.o
                0x00000378                UDMA0_Resources
 .data.ULP_UART_Resources
                0x00000384       0x44 ./wiseconnect3_sdk_3.3.0/components/device/silabs/si91x/mcu/drivers/cmsis_driver/USART.o
 .data.UART1_Resources
                0x000003c8       0x44 ./wiseconnect3_sdk_3.3.0/components/device/silabs/si91x/mcu/drivers/cmsis_driver/USART.o
 .data.USART0_Resources
                0x0000040c       0x44 ./wiseconnect3_sdk_3.3.0/components/device/silabs/si91x/mcu/drivers/cmsis_driver/USART.o
 .data.udma_driver_table
                0x00000450        0x8 ./wiseconnect3_sdk_3.3.0/components/device/silabs/si91x/mcu/drivers/unified_api/src/sl_si91x_dma.o
                0x00000450                udma_driver_table
 .data.udma_driver_channel_info
                0x00000458        0x8 ./wiseconnect3_sdk_3.3.0/components/device/silabs/si91x/mcu/drivers/unified_api/src/sl_si91x_dma.o
                0x00000458                udma_driver_channel_info
 .data.UDMA_driver_resources
                0x00000460        0x8 ./wiseconnect3_sdk_3.3.0/components/device/silabs/si91x/mcu/drivers/unified_api/src/sl_si91x_dma.o
                0x00000460                UDMA_driver_resources
 .data.dma_rom_buff
                0x00000468        0x8 ./wiseconnect3_sdk_3.3.0/components/device/silabs/si91x/mcu/drivers/unified_api/src/sl_si91x_dma.o
                0x00000468                dma_rom_buff
 .data.__sglue  0x00000470        0xc c:/siliconlabs/simplicitystudio/v5/developer/toolchains/gnu_arm/12.2.rel1_2023.7/bin/../lib/gcc/arm-none-eabi/12.2.1/thumb/v7e-m+fp/softfp\libc_nano.a(libc_a-findfp.o)
                0x00000470                __sglue
 .data._impure_ptr
                0x0000047c        0x4 c:/siliconlabs/simplicitystudio/v5/developer/toolchains/gnu_arm/12.2.rel1_2023.7/bin/../lib/gcc/arm-none-eabi/12.2.1/thumb/v7e-m+fp/softfp\libc_nano.a(libc_a-impure.o)
                0x0000047c                _impure_ptr
 .data._impure_data
                0x00000480       0x4c c:/siliconlabs/simplicitystudio/v5/developer/toolchains/gnu_arm/12.2.rel1_2023.7/bin/../lib/gcc/arm-none-eabi/12.2.1/thumb/v7e-m+fp/softfp\libc_nano.a(libc_a-impure.o)
                0x00000480                _impure_data
 .data.__global_locale
                0x000004cc      0x16c c:/siliconlabs/simplicitystudio/v5/developer/toolchains/gnu_arm/12.2.rel1_2023.7/bin/../lib/gcc/arm-none-eabi/12.2.1/thumb/v7e-m+fp/softfp\libc_nano.a(libc_a-locale.o)
                0x000004cc                __global_locale
 *UDMA.o(.text*)
 .text.IRQ033_Handler
                0x00000638       0xa8 ./wiseconnect3_sdk_3.3.0/components/device/silabs/si91x/mcu/drivers/cmsis_driver/UDMA.o
                0x00000638                IRQ033_Handler
 .text.IRQ010_Handler
                0x000006e0       0xac ./wiseconnect3_sdk_3.3.0/components/device/silabs/si91x/mcu/drivers/cmsis_driver/UDMA.o
                0x000006e0                IRQ010_Handler
                0x0000078c                . = ALIGN (0x4)
                0x0000078c                PROVIDE (__preinit_array_start = .)
 *(.preinit_array)
                0x0000078c                PROVIDE (__preinit_array_end = .)
                0x0000078c                . = ALIGN (0x4)
                0x0000078c                PROVIDE (__init_array_start = .)
 *(SORT_BY_NAME(.init_array.*))
 *(.init_array)
 .init_array    0x0000078c        0x4 c:/siliconlabs/simplicitystudio/v5/developer/toolchains/gnu_arm/12.2.rel1_2023.7/bin/../lib/gcc/arm-none-eabi/12.2.1/thumb/v7e-m+fp/softfp/crtbegin.o
                0x00000790                PROVIDE (__init_array_end = .)
                0x00000790                . = ALIGN (0x4)
                [!provide]                PROVIDE (__fini_array_start = .)
 *(SORT_BY_NAME(.fini_array.*))
 *(.fini_array)
 .fini_array    0x00000790        0x4 c:/siliconlabs/simplicitystudio/v5/developer/toolchains/gnu_arm/12.2.rel1_2023.7/bin/../lib/gcc/arm-none-eabi/12.2.1/thumb/v7e-m+fp/softfp/crtbegin.o
                [!provide]                PROVIDE (__fini_array_end = .)
 *(.jcr*)
                0x00000794                . = ALIGN (0x4)
                0x00000794                __data_end__ = .
                0x00000794                _edata = __data_end__

.tm_clone_table
                0x00000794        0x0 load address 0x0820b074
 .tm_clone_table
                0x00000794        0x0 c:/siliconlabs/simplicitystudio/v5/developer/toolchains/gnu_arm/12.2.rel1_2023.7/bin/../lib/gcc/arm-none-eabi/12.2.1/thumb/v7e-m+fp/softfp/crtbegin.o
 .tm_clone_table
                0x00000794        0x0 c:/siliconlabs/simplicitystudio/v5/developer/toolchains/gnu_arm/12.2.rel1_2023.7/bin/../lib/gcc/arm-none-eabi/12.2.1/thumb/v7e-m+fp/softfp/crtend.o

.igot.plt       0x00000794        0x0 load address 0x0820b074
 .igot.plt      0x00000794        0x0 c:/siliconlabs/simplicitystudio/v5/developer/toolchains/gnu_arm/12.2.rel1_2023.7/bin/../lib/gcc/arm-none-eabi/12.2.1/thumb/v7e-m+fp/softfp/crtbegin.o

.bss            0x00000794     0x1440 load address 0x0820b074
                0x00000794                . = ALIGN (0x4)
                0x00000794                __bss_start__ = .
 *(.bss*)
 .bss.completed.1
                0x00000794        0x1 c:/siliconlabs/simplicitystudio/v5/developer/toolchains/gnu_arm/12.2.rel1_2023.7/bin/../lib/gcc/arm-none-eabi/12.2.1/thumb/v7e-m+fp/softfp/crtbegin.o
 *fill*         0x00000795        0x3 
 .bss.object.0  0x00000798       0x18 c:/siliconlabs/simplicitystudio/v5/developer/toolchains/gnu_arm/12.2.rel1_2023.7/bin/../lib/gcc/arm-none-eabi/12.2.1/thumb/v7e-m+fp/softfp/crtbegin.o
 .bss.current_mode.1
                0x000007b0        0x1 ./ampak_gspi_util.o
 .bss.transfer_complete
                0x000007b1        0x1 ./ampak_gspi_util.o
 *fill*         0x000007b2        0x2 
 .bss.gspi_driver_handle
                0x000007b4        0x4 ./ampak_gspi_util.o
 .bss.gspi_data_out
                0x000007b8      0x400 ./ampak_gspi_util.o
 .bss.gspi_data_in
                0x00000bb8      0x400 ./ampak_gspi_util.o
 .bss.scdc_sleep
                0x00000fb8        0x2 ./wiseconnect3_sdk_3.3.0/components/device/silabs/si91x/mcu/core/chip/src/iPMU_prog/iPMU_dotc/ipmu_apis.o
                0x00000fb8                scdc_sleep
 .bss.scdc_active
                0x00000fba        0x2 ./wiseconnect3_sdk_3.3.0/components/device/silabs/si91x/mcu/core/chip/src/iPMU_prog/iPMU_dotc/ipmu_apis.o
                0x00000fba                scdc_active
 .bss.package_type
                0x00000fbc        0x4 ./wiseconnect3_sdk_3.3.0/components/device/silabs/si91x/mcu/core/chip/src/system_si91x.o
                0x00000fbc                package_type
 .bss.SiliconRev
                0x00000fc0        0x4 ./wiseconnect3_sdk_3.3.0/components/device/silabs/si91x/mcu/core/chip/src/system_si91x.o
                0x00000fc0                SiliconRev
 .bss.__sp      0x00000fc4        0x4 ./wiseconnect3_sdk_3.3.0/components/device/silabs/si91x/mcu/core/chip/src/system_si91x.o
                0x00000fc4                __sp
 .bss.system_clocks
                0x00000fc8       0x50 ./wiseconnect3_sdk_3.3.0/components/device/silabs/si91x/mcu/core/chip/src/system_si91x.o
                0x00000fc8                system_clocks
 .bss.recv_done
                0x00001018        0x4 ./wiseconnect3_sdk_3.3.0/components/device/silabs/si91x/mcu/core/common/src/rsi_debug.o
                0x00001018                recv_done
 .bss.send_done
                0x0000101c        0x4 ./wiseconnect3_sdk_3.3.0/components/device/silabs/si91x/mcu/core/common/src/rsi_debug.o
                0x0000101c                send_done
 .bss.buf       0x00001020       0x14 ./wiseconnect3_sdk_3.3.0/components/device/silabs/si91x/mcu/core/common/src/syscalls.o
                0x00001020                buf
 .bss.GSPI_MASTER_TransferInfo
                0x00001034       0x1c ./wiseconnect3_sdk_3.3.0/components/device/silabs/si91x/mcu/drivers/cmsis_driver/GSPI.o
 .bss.GSPI_MASTER_Info
                0x00001050        0xc ./wiseconnect3_sdk_3.3.0/components/device/silabs/si91x/mcu/drivers/cmsis_driver/GSPI.o
 .bss.udma1_chnl_info
                0x0000105c       0xf0 ./wiseconnect3_sdk_3.3.0/components/device/silabs/si91x/mcu/drivers/cmsis_driver/UDMA.o
                0x0000105c                udma1_chnl_info
 .bss.udma0_chnl_info
                0x0000114c      0x280 ./wiseconnect3_sdk_3.3.0/components/device/silabs/si91x/mcu/drivers/cmsis_driver/UDMA.o
                0x0000114c                udma0_chnl_info
 .bss.dma_rom_buff1
                0x000013cc       0x78 ./wiseconnect3_sdk_3.3.0/components/device/silabs/si91x/mcu/drivers/cmsis_driver/UDMA.o
                0x000013cc                dma_rom_buff1
 .bss.dma_rom_buff0
                0x00001444       0x78 ./wiseconnect3_sdk_3.3.0/components/device/silabs/si91x/mcu/drivers/cmsis_driver/UDMA.o
                0x00001444                dma_rom_buff0
 .bss.udmaHandle1
                0x000014bc        0x4 ./wiseconnect3_sdk_3.3.0/components/device/silabs/si91x/mcu/drivers/cmsis_driver/UDMA.o
                0x000014bc                udmaHandle1
 .bss.udmaHandle0
                0x000014c0        0x4 ./wiseconnect3_sdk_3.3.0/components/device/silabs/si91x/mcu/drivers/cmsis_driver/UDMA.o
                0x000014c0                udmaHandle0
 .bss.ULP_UART_Info
                0x000014c4       0x30 ./wiseconnect3_sdk_3.3.0/components/device/silabs/si91x/mcu/drivers/cmsis_driver/USART.o
 .bss.UART1_Info
                0x000014f4       0x30 ./wiseconnect3_sdk_3.3.0/components/device/silabs/si91x/mcu/drivers/cmsis_driver/USART.o
 .bss.USART0_Info
                0x00001524       0x30 ./wiseconnect3_sdk_3.3.0/components/device/silabs/si91x/mcu/drivers/cmsis_driver/USART.o
 .bss.data_width_in_bytes
                0x00001554        0x1 ./wiseconnect3_sdk_3.3.0/components/device/silabs/si91x/mcu/drivers/peripheral_drivers/src/rsi_gspi.o
 *fill*         0x00001555        0x3 
 .bss.sl_ulp_dma_channel_allocation_data_t
                0x00001558      0x120 ./wiseconnect3_sdk_3.3.0/components/device/silabs/si91x/mcu/drivers/unified_api/src/sl_si91x_dma.o
                0x00001558                sl_ulp_dma_channel_allocation_data_t
 .bss.sl_dma0_channel_allocation_data_t
                0x00001678      0x300 ./wiseconnect3_sdk_3.3.0/components/device/silabs/si91x/mcu/drivers/unified_api/src/sl_si91x_dma.o
                0x00001678                sl_dma0_channel_allocation_data_t
 .bss.dma_driver_rom_buff1
                0x00001978       0x78 ./wiseconnect3_sdk_3.3.0/components/device/silabs/si91x/mcu/drivers/unified_api/src/sl_si91x_dma.o
                0x00001978                dma_driver_rom_buff1
 .bss.dma_driver_rom_buff0
                0x000019f0       0x78 ./wiseconnect3_sdk_3.3.0/components/device/silabs/si91x/mcu/drivers/unified_api/src/sl_si91x_dma.o
                0x000019f0                dma_driver_rom_buff0
 .bss.udmaHandle
                0x00001a68        0x8 ./wiseconnect3_sdk_3.3.0/components/device/silabs/si91x/mcu/drivers/unified_api/src/sl_si91x_dma.o
                0x00001a68                udmaHandle
 .bss.local_gspi_handle
                0x00001a70        0x4 ./wiseconnect3_sdk_3.3.0/components/device/silabs/si91x/mcu/drivers/unified_api/src/sl_si91x_gspi.o
 .bss.user_callback
                0x00001a74        0x4 ./wiseconnect3_sdk_3.3.0/components/device/silabs/si91x/mcu/drivers/unified_api/src/sl_si91x_gspi.o
 .bss.timeout_callback_function_pointers
                0x00001a78       0x10 ./wiseconnect3_sdk_3.3.0/components/device/silabs/si91x/mcu/drivers/unified_api/src/sl_si91x_ulp_timer.o
 .bss.__sf      0x00001a88      0x138 c:/siliconlabs/simplicitystudio/v5/developer/toolchains/gnu_arm/12.2.rel1_2023.7/bin/../lib/gcc/arm-none-eabi/12.2.1/thumb/v7e-m+fp/softfp\libc_nano.a(libc_a-findfp.o)
                0x00001a88                __sf
 .bss.__stdio_exit_handler
                0x00001bc0        0x4 c:/siliconlabs/simplicitystudio/v5/developer/toolchains/gnu_arm/12.2.rel1_2023.7/bin/../lib/gcc/arm-none-eabi/12.2.1/thumb/v7e-m+fp/softfp\libc_nano.a(libc_a-findfp.o)
                0x00001bc0                __stdio_exit_handler
 .bss.errno     0x00001bc4        0x4 c:/siliconlabs/simplicitystudio/v5/developer/toolchains/gnu_arm/12.2.rel1_2023.7/bin/../lib/gcc/arm-none-eabi/12.2.1/thumb/v7e-m+fp/softfp\libc_nano.a(libc_a-reent.o)
                0x00001bc4                errno
 .bss.__lock___malloc_recursive_mutex
                0x00001bc8        0x1 c:/siliconlabs/simplicitystudio/v5/developer/toolchains/gnu_arm/12.2.rel1_2023.7/bin/../lib/gcc/arm-none-eabi/12.2.1/thumb/v7e-m+fp/softfp\libc_nano.a(libc_a-lock.o)
                0x00001bc8                __lock___malloc_recursive_mutex
 .bss.__lock___sfp_recursive_mutex
                0x00001bc9        0x1 c:/siliconlabs/simplicitystudio/v5/developer/toolchains/gnu_arm/12.2.rel1_2023.7/bin/../lib/gcc/arm-none-eabi/12.2.1/thumb/v7e-m+fp/softfp\libc_nano.a(libc_a-lock.o)
                0x00001bc9                __lock___sfp_recursive_mutex
 *fill*         0x00001bca        0x2 
 .bss.__malloc_sbrk_start
                0x00001bcc        0x4 c:/siliconlabs/simplicitystudio/v5/developer/toolchains/gnu_arm/12.2.rel1_2023.7/bin/../lib/gcc/arm-none-eabi/12.2.1/thumb/v7e-m+fp/softfp\libc_nano.a(libc_a-mallocr.o)
                0x00001bcc                __malloc_sbrk_start
 .bss.__malloc_free_list
                0x00001bd0        0x4 c:/siliconlabs/simplicitystudio/v5/developer/toolchains/gnu_arm/12.2.rel1_2023.7/bin/../lib/gcc/arm-none-eabi/12.2.1/thumb/v7e-m+fp/softfp\libc_nano.a(libc_a-mallocr.o)
                0x00001bd0                __malloc_free_list
 *(COMMON)
                0x00001bd4                . = ALIGN (0x4)
                0x00001bd4                __bss_end__ = .

.stack          0x00001bd8     0x3000 load address 0x0820b074
                0x00001bd8                __StackLimit = .
 *(.stack*)
 .stack         0x00001bd8     0x3000 ./wiseconnect3_sdk_3.3.0/components/device/silabs/si91x/mcu/core/common/src/sl_si91x_stack_object_declare.o
                0x00004bd8                . = ALIGN (0x4)
                0x00004bd8                __StackTop = .
                0x00004bd8                PROVIDE (__stack = __StackTop)

.heap           0x00004bd8    0x2b028 load address 0x0820b074
                0x00004bd8                __HeapBase = .
                0x00004bd8                __end__ = .
                0x00004bd8                end = __end__
                0x00004bd8                _end = __end__
 *(.heap*)
                0x0002fc00                . = (ORIGIN (ram) + LENGTH (ram))
 *fill*         0x00004bd8    0x2b028 
                0x0002fc00                __HeapLimit = .
                0x0002b028                __heap_size = (__HeapLimit - __HeapBase)

.udma_addr0     0x0002fc00      0x400 load address 0x0820b074
 *(.udma_addr0*)
 .udma_addr0    0x0002fc00      0x400 ./wiseconnect3_sdk_3.3.0/components/device/silabs/si91x/mcu/drivers/cmsis_driver/UDMA.o
                0x0002fc00                UDMA0_Table

.udma_addr1     0x24061c00      0x180 load address 0x0820b474
 *(.udma_addr1*)
 .udma_addr1    0x24061c00      0x180 ./wiseconnect3_sdk_3.3.0/components/device/silabs/si91x/mcu/drivers/cmsis_driver/UDMA.o
                0x24061c00                UDMA1_Table
OUTPUT(sl_si91x_gspi_w330.axf elf32-littlearm)
LOAD linker stubs

.ARM.attributes
                0x00000000       0x2e
 .ARM.attributes
                0x00000000       0x22 c:/siliconlabs/simplicitystudio/v5/developer/toolchains/gnu_arm/12.2.rel1_2023.7/bin/../lib/gcc/arm-none-eabi/12.2.1/thumb/v7e-m+fp/softfp/crti.o
 .ARM.attributes
                0x00000022       0x32 c:/siliconlabs/simplicitystudio/v5/developer/toolchains/gnu_arm/12.2.rel1_2023.7/bin/../lib/gcc/arm-none-eabi/12.2.1/thumb/v7e-m+fp/softfp/crtbegin.o
 .ARM.attributes
                0x00000054       0x32 ./ampak_gspi_util.o
 .ARM.attributes
                0x00000086       0x32 ./app.o
 .ARM.attributes
                0x000000b8       0x32 ./main.o
 .ARM.attributes
                0x000000ea       0x32 ./autogen/sl_event_handler.o
 .ARM.attributes
                0x0000011c       0x32 ./simplicity_sdk_2024.6.0/platform/service/system/src/sl_system_init.o
 .ARM.attributes
                0x0000014e       0x32 ./simplicity_sdk_2024.6.0/platform/service/system/src/sl_system_process_action.o
 .ARM.attributes
                0x00000180       0x32 ./wiseconnect3_sdk_3.3.0/components/board/silabs/src/rsi_board.o
 .ARM.attributes
                0x000001b2       0x32 ./wiseconnect3_sdk_3.3.0/components/device/silabs/si91x/mcu/core/chip/src/iPMU_prog/iPMU_dotc/ipmu_apis.o
 .ARM.attributes
                0x000001e4       0x32 ./wiseconnect3_sdk_3.3.0/components/device/silabs/si91x/mcu/core/chip/src/iPMU_prog/iPMU_dotc/rsi_system_config_917.o
 .ARM.attributes
                0x00000216       0x32 ./wiseconnect3_sdk_3.3.0/components/device/silabs/si91x/mcu/core/chip/src/rsi_deepsleep_soc.o
 .ARM.attributes
                0x00000248       0x32 ./wiseconnect3_sdk_3.3.0/components/device/silabs/si91x/mcu/core/chip/src/startup_si91x.o
 .ARM.attributes
                0x0000027a       0x32 ./wiseconnect3_sdk_3.3.0/components/device/silabs/si91x/mcu/core/chip/src/system_si91x.o
 .ARM.attributes
                0x000002ac       0x32 ./wiseconnect3_sdk_3.3.0/components/device/silabs/si91x/mcu/core/common/src/rsi_debug.o
 .ARM.attributes
                0x000002de       0x32 ./wiseconnect3_sdk_3.3.0/components/device/silabs/si91x/mcu/core/common/src/sl_si91x_stack_object_declare.o
 .ARM.attributes
                0x00000310       0x32 ./wiseconnect3_sdk_3.3.0/components/device/silabs/si91x/mcu/core/common/src/syscalls.o
 .ARM.attributes
                0x00000342       0x32 ./wiseconnect3_sdk_3.3.0/components/device/silabs/si91x/mcu/drivers/cmsis_driver/GSPI.o
 .ARM.attributes
                0x00000374       0x32 ./wiseconnect3_sdk_3.3.0/components/device/silabs/si91x/mcu/drivers/cmsis_driver/UDMA.o
 .ARM.attributes
                0x000003a6       0x32 ./wiseconnect3_sdk_3.3.0/components/device/silabs/si91x/mcu/drivers/cmsis_driver/USART.o
 .ARM.attributes
                0x000003d8       0x32 ./wiseconnect3_sdk_3.3.0/components/device/silabs/si91x/mcu/drivers/peripheral_drivers/src/clock_update.o
 .ARM.attributes
                0x0000040a       0x32 ./wiseconnect3_sdk_3.3.0/components/device/silabs/si91x/mcu/drivers/peripheral_drivers/src/rsi_gspi.o
 .ARM.attributes
                0x0000043c       0x32 ./wiseconnect3_sdk_3.3.0/components/device/silabs/si91x/mcu/drivers/peripheral_drivers/src/rsi_usart.o
 .ARM.attributes
                0x0000046e       0x32 ./wiseconnect3_sdk_3.3.0/components/device/silabs/si91x/mcu/drivers/systemlevel/src/rsi_ipmu.o
 .ARM.attributes
                0x000004a0       0x32 ./wiseconnect3_sdk_3.3.0/components/device/silabs/si91x/mcu/drivers/systemlevel/src/rsi_pll.o
 .ARM.attributes
                0x000004d2       0x32 ./wiseconnect3_sdk_3.3.0/components/device/silabs/si91x/mcu/drivers/systemlevel/src/rsi_ulpss_clk.o
 .ARM.attributes
                0x00000504       0x32 ./wiseconnect3_sdk_3.3.0/components/device/silabs/si91x/mcu/drivers/unified_api/src/sl_si91x_dma.o
 .ARM.attributes
                0x00000536       0x32 ./wiseconnect3_sdk_3.3.0/components/device/silabs/si91x/mcu/drivers/unified_api/src/sl_si91x_gspi.o
 .ARM.attributes
                0x00000568       0x32 ./wiseconnect3_sdk_3.3.0/components/device/silabs/si91x/mcu/drivers/unified_api/src/sl_si91x_ulp_timer.o
 .ARM.attributes
                0x0000059a       0x22 c:/siliconlabs/simplicitystudio/v5/developer/toolchains/gnu_arm/12.2.rel1_2023.7/bin/../lib/gcc/arm-none-eabi/12.2.1/thumb/v7e-m+fp/softfp\libgcc.a(_arm_addsubdf3.o)
 .ARM.attributes
                0x000005bc       0x22 c:/siliconlabs/simplicitystudio/v5/developer/toolchains/gnu_arm/12.2.rel1_2023.7/bin/../lib/gcc/arm-none-eabi/12.2.1/thumb/v7e-m+fp/softfp\libgcc.a(_arm_muldivdf3.o)
 .ARM.attributes
                0x000005de       0x22 c:/siliconlabs/simplicitystudio/v5/developer/toolchains/gnu_arm/12.2.rel1_2023.7/bin/../lib/gcc/arm-none-eabi/12.2.1/thumb/v7e-m+fp/softfp\libgcc.a(_arm_fixunsdfsi.o)
 .ARM.attributes
                0x00000600       0x32 c:/siliconlabs/simplicitystudio/v5/developer/toolchains/gnu_arm/12.2.rel1_2023.7/bin/../lib/gcc/arm-none-eabi/12.2.1/thumb/v7e-m+fp/softfp\libc_nano.a(libc_a-nano-vfprintf_float.o)
 .ARM.attributes
                0x00000632       0x32 c:/siliconlabs/simplicitystudio/v5/developer/toolchains/gnu_arm/12.2.rel1_2023.7/bin/../lib/gcc/arm-none-eabi/12.2.1/thumb/v7e-m+fp/softfp\libc_nano.a(libc_a-nano-vfprintf_i.o)
 .ARM.attributes
                0x00000664       0x32 c:/siliconlabs/simplicitystudio/v5/developer/toolchains/gnu_arm/12.2.rel1_2023.7/bin/../lib/gcc/arm-none-eabi/12.2.1/thumb/v7e-m+fp/softfp\libc_nano.a(libc_a-findfp.o)
 .ARM.attributes
                0x00000696       0x32 c:/siliconlabs/simplicitystudio/v5/developer/toolchains/gnu_arm/12.2.rel1_2023.7/bin/../lib/gcc/arm-none-eabi/12.2.1/thumb/v7e-m+fp/softfp\libc_nano.a(libc_a-fwalk.o)
 .ARM.attributes
                0x000006c8       0x32 c:/siliconlabs/simplicitystudio/v5/developer/toolchains/gnu_arm/12.2.rel1_2023.7/bin/../lib/gcc/arm-none-eabi/12.2.1/thumb/v7e-m+fp/softfp\libc_nano.a(libc_a-printf.o)
 .ARM.attributes
                0x000006fa       0x32 c:/siliconlabs/simplicitystudio/v5/developer/toolchains/gnu_arm/12.2.rel1_2023.7/bin/../lib/gcc/arm-none-eabi/12.2.1/thumb/v7e-m+fp/softfp\libc_nano.a(libc_a-puts.o)
 .ARM.attributes
                0x0000072c       0x32 c:/siliconlabs/simplicitystudio/v5/developer/toolchains/gnu_arm/12.2.rel1_2023.7/bin/../lib/gcc/arm-none-eabi/12.2.1/thumb/v7e-m+fp/softfp\libc_nano.a(libc_a-stdio.o)
 .ARM.attributes
                0x0000075e       0x32 c:/siliconlabs/simplicitystudio/v5/developer/toolchains/gnu_arm/12.2.rel1_2023.7/bin/../lib/gcc/arm-none-eabi/12.2.1/thumb/v7e-m+fp/softfp\libc_nano.a(libc_a-wbuf.o)
 .ARM.attributes
                0x00000790       0x32 c:/siliconlabs/simplicitystudio/v5/developer/toolchains/gnu_arm/12.2.rel1_2023.7/bin/../lib/gcc/arm-none-eabi/12.2.1/thumb/v7e-m+fp/softfp\libc_nano.a(libc_a-wsetup.o)
 .ARM.attributes
                0x000007c2       0x32 c:/siliconlabs/simplicitystudio/v5/developer/toolchains/gnu_arm/12.2.rel1_2023.7/bin/../lib/gcc/arm-none-eabi/12.2.1/thumb/v7e-m+fp/softfp\libc_nano.a(libc_a-memset.o)
 .ARM.attributes
                0x000007f4       0x32 c:/siliconlabs/simplicitystudio/v5/developer/toolchains/gnu_arm/12.2.rel1_2023.7/bin/../lib/gcc/arm-none-eabi/12.2.1/thumb/v7e-m+fp/softfp\libc_nano.a(libc_a-localeconv.o)
 .ARM.attributes
                0x00000826       0x32 c:/siliconlabs/simplicitystudio/v5/developer/toolchains/gnu_arm/12.2.rel1_2023.7/bin/../lib/gcc/arm-none-eabi/12.2.1/thumb/v7e-m+fp/softfp\libc_nano.a(libc_a-closer.o)
 .ARM.attributes
                0x00000858       0x32 c:/siliconlabs/simplicitystudio/v5/developer/toolchains/gnu_arm/12.2.rel1_2023.7/bin/../lib/gcc/arm-none-eabi/12.2.1/thumb/v7e-m+fp/softfp\libc_nano.a(libc_a-reent.o)
 .ARM.attributes
                0x0000088a       0x32 c:/siliconlabs/simplicitystudio/v5/developer/toolchains/gnu_arm/12.2.rel1_2023.7/bin/../lib/gcc/arm-none-eabi/12.2.1/thumb/v7e-m+fp/softfp\libc_nano.a(libc_a-impure.o)
 .ARM.attributes
                0x000008bc       0x32 c:/siliconlabs/simplicitystudio/v5/developer/toolchains/gnu_arm/12.2.rel1_2023.7/bin/../lib/gcc/arm-none-eabi/12.2.1/thumb/v7e-m+fp/softfp\libc_nano.a(libc_a-lseekr.o)
 .ARM.attributes
                0x000008ee       0x32 c:/siliconlabs/simplicitystudio/v5/developer/toolchains/gnu_arm/12.2.rel1_2023.7/bin/../lib/gcc/arm-none-eabi/12.2.1/thumb/v7e-m+fp/softfp\libc_nano.a(libc_a-readr.o)
 .ARM.attributes
                0x00000920       0x32 c:/siliconlabs/simplicitystudio/v5/developer/toolchains/gnu_arm/12.2.rel1_2023.7/bin/../lib/gcc/arm-none-eabi/12.2.1/thumb/v7e-m+fp/softfp\libc_nano.a(libc_a-writer.o)
 .ARM.attributes
                0x00000952       0x32 c:/siliconlabs/simplicitystudio/v5/developer/toolchains/gnu_arm/12.2.rel1_2023.7/bin/../lib/gcc/arm-none-eabi/12.2.1/thumb/v7e-m+fp/softfp\libc_nano.a(libc_a-errno.o)
 .ARM.attributes
                0x00000984       0x32 c:/siliconlabs/simplicitystudio/v5/developer/toolchains/gnu_arm/12.2.rel1_2023.7/bin/../lib/gcc/arm-none-eabi/12.2.1/thumb/v7e-m+fp/softfp\libc_nano.a(libc_a-lock.o)
 .ARM.attributes
                0x000009b6       0x1c c:/siliconlabs/simplicitystudio/v5/developer/toolchains/gnu_arm/12.2.rel1_2023.7/bin/../lib/gcc/arm-none-eabi/12.2.1/thumb/v7e-m+fp/softfp\libc_nano.a(libc_a-memchr.o)
 .ARM.attributes
                0x000009d2       0x17 c:/siliconlabs/simplicitystudio/v5/developer/toolchains/gnu_arm/12.2.rel1_2023.7/bin/../lib/gcc/arm-none-eabi/12.2.1/thumb/v7e-m+fp/softfp\libc_nano.a(libc_a-strlen.o)
 .ARM.attributes
                0x000009e9       0x32 c:/siliconlabs/simplicitystudio/v5/developer/toolchains/gnu_arm/12.2.rel1_2023.7/bin/../lib/gcc/arm-none-eabi/12.2.1/thumb/v7e-m+fp/softfp\libc_nano.a(libc_a-dtoa.o)
 .ARM.attributes
                0x00000a1b       0x32 c:/siliconlabs/simplicitystudio/v5/developer/toolchains/gnu_arm/12.2.rel1_2023.7/bin/../lib/gcc/arm-none-eabi/12.2.1/thumb/v7e-m+fp/softfp\libc_nano.a(libc_a-freer.o)
 .ARM.attributes
                0x00000a4d       0x32 c:/siliconlabs/simplicitystudio/v5/developer/toolchains/gnu_arm/12.2.rel1_2023.7/bin/../lib/gcc/arm-none-eabi/12.2.1/thumb/v7e-m+fp/softfp\libc_nano.a(libc_a-malloc.o)
 .ARM.attributes
                0x00000a7f       0x32 c:/siliconlabs/simplicitystudio/v5/developer/toolchains/gnu_arm/12.2.rel1_2023.7/bin/../lib/gcc/arm-none-eabi/12.2.1/thumb/v7e-m+fp/softfp\libc_nano.a(libc_a-mallocr.o)
 .ARM.attributes
                0x00000ab1       0x32 c:/siliconlabs/simplicitystudio/v5/developer/toolchains/gnu_arm/12.2.rel1_2023.7/bin/../lib/gcc/arm-none-eabi/12.2.1/thumb/v7e-m+fp/softfp\libc_nano.a(libc_a-mlock.o)
 .ARM.attributes
                0x00000ae3       0x32 c:/siliconlabs/simplicitystudio/v5/developer/toolchains/gnu_arm/12.2.rel1_2023.7/bin/../lib/gcc/arm-none-eabi/12.2.1/thumb/v7e-m+fp/softfp\libc_nano.a(libc_a-mprec.o)
 .ARM.attributes
                0x00000b15       0x32 c:/siliconlabs/simplicitystudio/v5/developer/toolchains/gnu_arm/12.2.rel1_2023.7/bin/../lib/gcc/arm-none-eabi/12.2.1/thumb/v7e-m+fp/softfp\libc_nano.a(libc_a-nano-vfprintf.o)
 .ARM.attributes
                0x00000b47       0x32 c:/siliconlabs/simplicitystudio/v5/developer/toolchains/gnu_arm/12.2.rel1_2023.7/bin/../lib/gcc/arm-none-eabi/12.2.1/thumb/v7e-m+fp/softfp\libc_nano.a(libc_a-fflush.o)
 .ARM.attributes
                0x00000b79       0x32 c:/siliconlabs/simplicitystudio/v5/developer/toolchains/gnu_arm/12.2.rel1_2023.7/bin/../lib/gcc/arm-none-eabi/12.2.1/thumb/v7e-m+fp/softfp\libc_nano.a(libc_a-makebuf.o)
 .ARM.attributes
                0x00000bab       0x32 c:/siliconlabs/simplicitystudio/v5/developer/toolchains/gnu_arm/12.2.rel1_2023.7/bin/../lib/gcc/arm-none-eabi/12.2.1/thumb/v7e-m+fp/softfp\libc_nano.a(libc_a-locale.o)
 .ARM.attributes
                0x00000bdd       0x32 c:/siliconlabs/simplicitystudio/v5/developer/toolchains/gnu_arm/12.2.rel1_2023.7/bin/../lib/gcc/arm-none-eabi/12.2.1/thumb/v7e-m+fp/softfp\libc_nano.a(libc_a-fstatr.o)
 .ARM.attributes
                0x00000c0f       0x32 c:/siliconlabs/simplicitystudio/v5/developer/toolchains/gnu_arm/12.2.rel1_2023.7/bin/../lib/gcc/arm-none-eabi/12.2.1/thumb/v7e-m+fp/softfp\libc_nano.a(libc_a-isattyr.o)
 .ARM.attributes
                0x00000c41       0x32 c:/siliconlabs/simplicitystudio/v5/developer/toolchains/gnu_arm/12.2.rel1_2023.7/bin/../lib/gcc/arm-none-eabi/12.2.1/thumb/v7e-m+fp/softfp\libc_nano.a(libc_a-sbrkr.o)
 .ARM.attributes
                0x00000c73       0x32 c:/siliconlabs/simplicitystudio/v5/developer/toolchains/gnu_arm/12.2.rel1_2023.7/bin/../lib/gcc/arm-none-eabi/12.2.1/thumb/v7e-m+fp/softfp\libc_nano.a(libc_a-memcpy-stub.o)
 .ARM.attributes
                0x00000ca5       0x32 c:/siliconlabs/simplicitystudio/v5/developer/toolchains/gnu_arm/12.2.rel1_2023.7/bin/../lib/gcc/arm-none-eabi/12.2.1/thumb/v7e-m+fp/softfp\libc_nano.a(libc_a-assert.o)
 .ARM.attributes
                0x00000cd7       0x32 c:/siliconlabs/simplicitystudio/v5/developer/toolchains/gnu_arm/12.2.rel1_2023.7/bin/../lib/gcc/arm-none-eabi/12.2.1/thumb/v7e-m+fp/softfp\libc_nano.a(libc_a-callocr.o)
 .ARM.attributes
                0x00000d09       0x32 c:/siliconlabs/simplicitystudio/v5/developer/toolchains/gnu_arm/12.2.rel1_2023.7/bin/../lib/gcc/arm-none-eabi/12.2.1/thumb/v7e-m+fp/softfp\libc_nano.a(libc_a-mbtowc_r.o)
 .ARM.attributes
                0x00000d3b       0x32 c:/siliconlabs/simplicitystudio/v5/developer/toolchains/gnu_arm/12.2.rel1_2023.7/bin/../lib/gcc/arm-none-eabi/12.2.1/thumb/v7e-m+fp/softfp\libc_nano.a(libc_a-wctomb_r.o)
 .ARM.attributes
                0x00000d6d       0x32 c:/siliconlabs/simplicitystudio/v5/developer/toolchains/gnu_arm/12.2.rel1_2023.7/bin/../lib/gcc/arm-none-eabi/12.2.1/thumb/v7e-m+fp/softfp\libc_nano.a(libc_a-ctype_.o)
 .ARM.attributes
                0x00000d9f       0x32 c:/siliconlabs/simplicitystudio/v5/developer/toolchains/gnu_arm/12.2.rel1_2023.7/bin/../lib/gcc/arm-none-eabi/12.2.1/thumb/v7e-m+fp/softfp\libc_nano.a(libc_a-fprintf.o)
 .ARM.attributes
                0x00000dd1       0x32 c:/siliconlabs/simplicitystudio/v5/developer/toolchains/gnu_arm/12.2.rel1_2023.7/bin/../lib/gcc/arm-none-eabi/12.2.1/thumb/v7e-m+fp/softfp\libc_nano.a(libc_a-abort.o)
 .ARM.attributes
                0x00000e03       0x32 c:/siliconlabs/simplicitystudio/v5/developer/toolchains/gnu_arm/12.2.rel1_2023.7/bin/../lib/gcc/arm-none-eabi/12.2.1/thumb/v7e-m+fp/softfp\libc_nano.a(libc_a-signal.o)
 .ARM.attributes
                0x00000e35       0x32 c:/siliconlabs/simplicitystudio/v5/developer/toolchains/gnu_arm/12.2.rel1_2023.7/bin/../lib/gcc/arm-none-eabi/12.2.1/thumb/v7e-m+fp/softfp\libc_nano.a(libc_a-signalr.o)
 .ARM.attributes
                0x00000e67       0x22 c:/siliconlabs/simplicitystudio/v5/developer/toolchains/gnu_arm/12.2.rel1_2023.7/bin/../lib/gcc/arm-none-eabi/12.2.1/thumb/v7e-m+fp/softfp\libgcc.a(_arm_cmpdf2.o)
 .ARM.attributes
                0x00000e89       0x22 c:/siliconlabs/simplicitystudio/v5/developer/toolchains/gnu_arm/12.2.rel1_2023.7/bin/../lib/gcc/arm-none-eabi/12.2.1/thumb/v7e-m+fp/softfp\libgcc.a(_arm_unorddf2.o)
 .ARM.attributes
                0x00000eab       0x22 c:/siliconlabs/simplicitystudio/v5/developer/toolchains/gnu_arm/12.2.rel1_2023.7/bin/../lib/gcc/arm-none-eabi/12.2.1/thumb/v7e-m+fp/softfp\libgcc.a(_arm_fixdfsi.o)
 .ARM.attributes
                0x00000ecd       0x32 c:/siliconlabs/simplicitystudio/v5/developer/toolchains/gnu_arm/12.2.rel1_2023.7/bin/../lib/gcc/arm-none-eabi/12.2.1/thumb/v7e-m+fp/softfp/crtend.o
 .ARM.attributes
                0x00000eff       0x22 c:/siliconlabs/simplicitystudio/v5/developer/toolchains/gnu_arm/12.2.rel1_2023.7/bin/../lib/gcc/arm-none-eabi/12.2.1/thumb/v7e-m+fp/softfp/crtn.o

.comment        0x00000000       0x45
 .comment       0x00000000       0x45 ./ampak_gspi_util.o
                                 0x46 (size before relaxing)
 .comment       0x00000045       0x46 ./app.o
 .comment       0x00000045       0x46 ./main.o
 .comment       0x00000045       0x46 ./autogen/sl_event_handler.o
 .comment       0x00000045       0x46 ./simplicity_sdk_2024.6.0/platform/service/system/src/sl_system_init.o
 .comment       0x00000045       0x46 ./simplicity_sdk_2024.6.0/platform/service/system/src/sl_system_process_action.o
 .comment       0x00000045       0x46 ./wiseconnect3_sdk_3.3.0/components/board/silabs/src/rsi_board.o
 .comment       0x00000045       0x46 ./wiseconnect3_sdk_3.3.0/components/device/silabs/si91x/mcu/core/chip/src/iPMU_prog/iPMU_dotc/ipmu_apis.o
 .comment       0x00000045       0x46 ./wiseconnect3_sdk_3.3.0/components/device/silabs/si91x/mcu/core/chip/src/iPMU_prog/iPMU_dotc/rsi_system_config_917.o
 .comment       0x00000045       0x46 ./wiseconnect3_sdk_3.3.0/components/device/silabs/si91x/mcu/core/chip/src/rsi_deepsleep_soc.o
 .comment       0x00000045       0x46 ./wiseconnect3_sdk_3.3.0/components/device/silabs/si91x/mcu/core/chip/src/startup_si91x.o
 .comment       0x00000045       0x46 ./wiseconnect3_sdk_3.3.0/components/device/silabs/si91x/mcu/core/chip/src/system_si91x.o
 .comment       0x00000045       0x46 ./wiseconnect3_sdk_3.3.0/components/device/silabs/si91x/mcu/core/common/src/rsi_debug.o
 .comment       0x00000045       0x46 ./wiseconnect3_sdk_3.3.0/components/device/silabs/si91x/mcu/core/common/src/sl_si91x_stack_object_declare.o
 .comment       0x00000045       0x46 ./wiseconnect3_sdk_3.3.0/components/device/silabs/si91x/mcu/core/common/src/syscalls.o
 .comment       0x00000045       0x46 ./wiseconnect3_sdk_3.3.0/components/device/silabs/si91x/mcu/drivers/cmsis_driver/GSPI.o
 .comment       0x00000045       0x46 ./wiseconnect3_sdk_3.3.0/components/device/silabs/si91x/mcu/drivers/cmsis_driver/UDMA.o
 .comment       0x00000045       0x46 ./wiseconnect3_sdk_3.3.0/components/device/silabs/si91x/mcu/drivers/cmsis_driver/USART.o
 .comment       0x00000045       0x46 ./wiseconnect3_sdk_3.3.0/components/device/silabs/si91x/mcu/drivers/peripheral_drivers/src/clock_update.o
 .comment       0x00000045       0x46 ./wiseconnect3_sdk_3.3.0/components/device/silabs/si91x/mcu/drivers/peripheral_drivers/src/rsi_gspi.o
 .comment       0x00000045       0x46 ./wiseconnect3_sdk_3.3.0/components/device/silabs/si91x/mcu/drivers/peripheral_drivers/src/rsi_usart.o
 .comment       0x00000045       0x46 ./wiseconnect3_sdk_3.3.0/components/device/silabs/si91x/mcu/drivers/systemlevel/src/rsi_ipmu.o
 .comment       0x00000045       0x46 ./wiseconnect3_sdk_3.3.0/components/device/silabs/si91x/mcu/drivers/systemlevel/src/rsi_pll.o
 .comment       0x00000045       0x46 ./wiseconnect3_sdk_3.3.0/components/device/silabs/si91x/mcu/drivers/systemlevel/src/rsi_ulpss_clk.o
 .comment       0x00000045       0x46 ./wiseconnect3_sdk_3.3.0/components/device/silabs/si91x/mcu/drivers/unified_api/src/sl_si91x_dma.o
 .comment       0x00000045       0x46 ./wiseconnect3_sdk_3.3.0/components/device/silabs/si91x/mcu/drivers/unified_api/src/sl_si91x_gspi.o
 .comment       0x00000045       0x46 ./wiseconnect3_sdk_3.3.0/components/device/silabs/si91x/mcu/drivers/unified_api/src/sl_si91x_ulp_timer.o

.debug_info     0x00000000    0xb4dec
 .debug_info    0x00000000      0xdca ./ampak_gspi_util.o
 .debug_info    0x00000dca       0xd3 ./app.o
 .debug_info    0x00000e9d       0xa1 ./main.o
 .debug_info    0x00000f3e      0x147 ./autogen/sl_event_handler.o
 .debug_info    0x00001085       0xa7 ./simplicity_sdk_2024.6.0/platform/service/system/src/sl_system_init.o
 .debug_info    0x0000112c       0x93 ./simplicity_sdk_2024.6.0/platform/service/system/src/sl_system_process_action.o
 .debug_info    0x000011bf    0x130b2 ./wiseconnect3_sdk_3.3.0/components/board/silabs/src/rsi_board.o
 .debug_info    0x00014271     0x178b ./wiseconnect3_sdk_3.3.0/components/device/silabs/si91x/mcu/core/chip/src/iPMU_prog/iPMU_dotc/ipmu_apis.o
 .debug_info    0x000159fc      0x6b7 ./wiseconnect3_sdk_3.3.0/components/device/silabs/si91x/mcu/core/chip/src/iPMU_prog/iPMU_dotc/rsi_system_config_917.o
 .debug_info    0x000160b3     0x5924 ./wiseconnect3_sdk_3.3.0/components/device/silabs/si91x/mcu/core/chip/src/rsi_deepsleep_soc.o
 .debug_info    0x0001b9d7      0x289 ./wiseconnect3_sdk_3.3.0/components/device/silabs/si91x/mcu/core/chip/src/startup_si91x.o
 .debug_info    0x0001bc60    0x166b6 ./wiseconnect3_sdk_3.3.0/components/device/silabs/si91x/mcu/core/chip/src/system_si91x.o
 .debug_info    0x00032316      0xd00 ./wiseconnect3_sdk_3.3.0/components/device/silabs/si91x/mcu/core/common/src/rsi_debug.o
 .debug_info    0x00033016       0x8f ./wiseconnect3_sdk_3.3.0/components/device/silabs/si91x/mcu/core/common/src/sl_si91x_stack_object_declare.o
 .debug_info    0x000330a5      0xcbd ./wiseconnect3_sdk_3.3.0/components/device/silabs/si91x/mcu/core/common/src/syscalls.o
 .debug_info    0x00033d62     0x2df0 ./wiseconnect3_sdk_3.3.0/components/device/silabs/si91x/mcu/drivers/cmsis_driver/GSPI.o
 .debug_info    0x00036b52    0x133a8 ./wiseconnect3_sdk_3.3.0/components/device/silabs/si91x/mcu/drivers/cmsis_driver/UDMA.o
 .debug_info    0x00049efa     0x59f6 ./wiseconnect3_sdk_3.3.0/components/device/silabs/si91x/mcu/drivers/cmsis_driver/USART.o
 .debug_info    0x0004f8f0     0x391f ./wiseconnect3_sdk_3.3.0/components/device/silabs/si91x/mcu/drivers/peripheral_drivers/src/clock_update.o
 .debug_info    0x0005320f    0x15b6b ./wiseconnect3_sdk_3.3.0/components/device/silabs/si91x/mcu/drivers/peripheral_drivers/src/rsi_gspi.o
 .debug_info    0x00068d7a    0x160d9 ./wiseconnect3_sdk_3.3.0/components/device/silabs/si91x/mcu/drivers/peripheral_drivers/src/rsi_usart.o
 .debug_info    0x0007ee53     0x3d54 ./wiseconnect3_sdk_3.3.0/components/device/silabs/si91x/mcu/drivers/systemlevel/src/rsi_ipmu.o
 .debug_info    0x00082ba7     0x53bb ./wiseconnect3_sdk_3.3.0/components/device/silabs/si91x/mcu/drivers/systemlevel/src/rsi_pll.o
 .debug_info    0x00087f62     0x2ede ./wiseconnect3_sdk_3.3.0/components/device/silabs/si91x/mcu/drivers/systemlevel/src/rsi_ulpss_clk.o
 .debug_info    0x0008ae40    0x140ff ./wiseconnect3_sdk_3.3.0/components/device/silabs/si91x/mcu/drivers/unified_api/src/sl_si91x_dma.o
 .debug_info    0x0009ef3f     0x12e6 ./wiseconnect3_sdk_3.3.0/components/device/silabs/si91x/mcu/drivers/unified_api/src/sl_si91x_gspi.o
 .debug_info    0x000a0225    0x14bc7 ./wiseconnect3_sdk_3.3.0/components/device/silabs/si91x/mcu/drivers/unified_api/src/sl_si91x_ulp_timer.o

.debug_abbrev   0x00000000     0x520e
 .debug_abbrev  0x00000000      0x369 ./ampak_gspi_util.o
 .debug_abbrev  0x00000369       0x83 ./app.o
 .debug_abbrev  0x000003ec       0x5d ./main.o
 .debug_abbrev  0x00000449       0xa8 ./autogen/sl_event_handler.o
 .debug_abbrev  0x000004f1       0x5c ./simplicity_sdk_2024.6.0/platform/service/system/src/sl_system_init.o
 .debug_abbrev  0x0000054d       0x5c ./simplicity_sdk_2024.6.0/platform/service/system/src/sl_system_process_action.o
 .debug_abbrev  0x000005a9      0x3a4 ./wiseconnect3_sdk_3.3.0/components/board/silabs/src/rsi_board.o
 .debug_abbrev  0x0000094d      0x3b3 ./wiseconnect3_sdk_3.3.0/components/device/silabs/si91x/mcu/core/chip/src/iPMU_prog/iPMU_dotc/ipmu_apis.o
 .debug_abbrev  0x00000d00       0x69 ./wiseconnect3_sdk_3.3.0/components/device/silabs/si91x/mcu/core/chip/src/iPMU_prog/iPMU_dotc/rsi_system_config_917.o
 .debug_abbrev  0x00000d69      0x44a ./wiseconnect3_sdk_3.3.0/components/device/silabs/si91x/mcu/core/chip/src/rsi_deepsleep_soc.o
 .debug_abbrev  0x000011b3      0x1b3 ./wiseconnect3_sdk_3.3.0/components/device/silabs/si91x/mcu/core/chip/src/startup_si91x.o
 .debug_abbrev  0x00001366      0x44c ./wiseconnect3_sdk_3.3.0/components/device/silabs/si91x/mcu/core/chip/src/system_si91x.o
 .debug_abbrev  0x000017b2      0x3c2 ./wiseconnect3_sdk_3.3.0/components/device/silabs/si91x/mcu/core/common/src/rsi_debug.o
 .debug_abbrev  0x00001b74       0x4c ./wiseconnect3_sdk_3.3.0/components/device/silabs/si91x/mcu/core/common/src/sl_si91x_stack_object_declare.o
 .debug_abbrev  0x00001bc0      0x471 ./wiseconnect3_sdk_3.3.0/components/device/silabs/si91x/mcu/core/common/src/syscalls.o
 .debug_abbrev  0x00002031      0x45d ./wiseconnect3_sdk_3.3.0/components/device/silabs/si91x/mcu/drivers/cmsis_driver/GSPI.o
 .debug_abbrev  0x0000248e      0x416 ./wiseconnect3_sdk_3.3.0/components/device/silabs/si91x/mcu/drivers/cmsis_driver/UDMA.o
 .debug_abbrev  0x000028a4      0x42e ./wiseconnect3_sdk_3.3.0/components/device/silabs/si91x/mcu/drivers/cmsis_driver/USART.o
 .debug_abbrev  0x00002cd2      0x1a6 ./wiseconnect3_sdk_3.3.0/components/device/silabs/si91x/mcu/drivers/peripheral_drivers/src/clock_update.o
 .debug_abbrev  0x00002e78      0x5a1 ./wiseconnect3_sdk_3.3.0/components/device/silabs/si91x/mcu/drivers/peripheral_drivers/src/rsi_gspi.o
 .debug_abbrev  0x00003419      0x5ac ./wiseconnect3_sdk_3.3.0/components/device/silabs/si91x/mcu/drivers/peripheral_drivers/src/rsi_usart.o
 .debug_abbrev  0x000039c5      0x34d ./wiseconnect3_sdk_3.3.0/components/device/silabs/si91x/mcu/drivers/systemlevel/src/rsi_ipmu.o
 .debug_abbrev  0x00003d12      0x30a ./wiseconnect3_sdk_3.3.0/components/device/silabs/si91x/mcu/drivers/systemlevel/src/rsi_pll.o
 .debug_abbrev  0x0000401c      0x28c ./wiseconnect3_sdk_3.3.0/components/device/silabs/si91x/mcu/drivers/systemlevel/src/rsi_ulpss_clk.o
 .debug_abbrev  0x000042a8      0x551 ./wiseconnect3_sdk_3.3.0/components/device/silabs/si91x/mcu/drivers/unified_api/src/sl_si91x_dma.o
 .debug_abbrev  0x000047f9      0x494 ./wiseconnect3_sdk_3.3.0/components/device/silabs/si91x/mcu/drivers/unified_api/src/sl_si91x_gspi.o
 .debug_abbrev  0x00004c8d      0x581 ./wiseconnect3_sdk_3.3.0/components/device/silabs/si91x/mcu/drivers/unified_api/src/sl_si91x_ulp_timer.o

.debug_loc      0x00000000     0xfc77
 .debug_loc     0x00000000      0x5f1 ./ampak_gspi_util.o
 .debug_loc     0x000005f1       0x20 ./main.o
 .debug_loc     0x00000611       0x2c ./autogen/sl_event_handler.o
 .debug_loc     0x0000063d       0x2c ./simplicity_sdk_2024.6.0/platform/service/system/src/sl_system_init.o
 .debug_loc     0x00000669       0x2c ./simplicity_sdk_2024.6.0/platform/service/system/src/sl_system_process_action.o
 .debug_loc     0x00000695      0x17a ./wiseconnect3_sdk_3.3.0/components/board/silabs/src/rsi_board.o
 .debug_loc     0x0000080f      0xf12 ./wiseconnect3_sdk_3.3.0/components/device/silabs/si91x/mcu/core/chip/src/iPMU_prog/iPMU_dotc/ipmu_apis.o
 .debug_loc     0x00001721      0x42e ./wiseconnect3_sdk_3.3.0/components/device/silabs/si91x/mcu/core/chip/src/rsi_deepsleep_soc.o
 .debug_loc     0x00001b4f       0x8e ./wiseconnect3_sdk_3.3.0/components/device/silabs/si91x/mcu/core/chip/src/startup_si91x.o
 .debug_loc     0x00001bdd      0x15c ./wiseconnect3_sdk_3.3.0/components/device/silabs/si91x/mcu/core/chip/src/system_si91x.o
 .debug_loc     0x00001d39      0x27e ./wiseconnect3_sdk_3.3.0/components/device/silabs/si91x/mcu/core/common/src/rsi_debug.o
 .debug_loc     0x00001fb7      0xb2a ./wiseconnect3_sdk_3.3.0/components/device/silabs/si91x/mcu/core/common/src/syscalls.o
 .debug_loc     0x00002ae1      0x52f ./wiseconnect3_sdk_3.3.0/components/device/silabs/si91x/mcu/drivers/cmsis_driver/GSPI.o
 .debug_loc     0x00003010      0x2de ./wiseconnect3_sdk_3.3.0/components/device/silabs/si91x/mcu/drivers/cmsis_driver/UDMA.o
 .debug_loc     0x000032ee      0xaa7 ./wiseconnect3_sdk_3.3.0/components/device/silabs/si91x/mcu/drivers/cmsis_driver/USART.o
 .debug_loc     0x00003d95     0x17a6 ./wiseconnect3_sdk_3.3.0/components/device/silabs/si91x/mcu/drivers/peripheral_drivers/src/clock_update.o
 .debug_loc     0x0000553b     0x2699 ./wiseconnect3_sdk_3.3.0/components/device/silabs/si91x/mcu/drivers/peripheral_drivers/src/rsi_gspi.o
 .debug_loc     0x00007bd4     0x1fbc ./wiseconnect3_sdk_3.3.0/components/device/silabs/si91x/mcu/drivers/peripheral_drivers/src/rsi_usart.o
 .debug_loc     0x00009b90      0xf72 ./wiseconnect3_sdk_3.3.0/components/device/silabs/si91x/mcu/drivers/systemlevel/src/rsi_ipmu.o
 .debug_loc     0x0000ab02      0x5fe ./wiseconnect3_sdk_3.3.0/components/device/silabs/si91x/mcu/drivers/systemlevel/src/rsi_pll.o
 .debug_loc     0x0000b100      0x36c ./wiseconnect3_sdk_3.3.0/components/device/silabs/si91x/mcu/drivers/systemlevel/src/rsi_ulpss_clk.o
 .debug_loc     0x0000b46c     0x1f26 ./wiseconnect3_sdk_3.3.0/components/device/silabs/si91x/mcu/drivers/unified_api/src/sl_si91x_dma.o
 .debug_loc     0x0000d392      0xe73 ./wiseconnect3_sdk_3.3.0/components/device/silabs/si91x/mcu/drivers/unified_api/src/sl_si91x_gspi.o
 .debug_loc     0x0000e205     0x1a72 ./wiseconnect3_sdk_3.3.0/components/device/silabs/si91x/mcu/drivers/unified_api/src/sl_si91x_ulp_timer.o

.debug_aranges  0x00000000      0xcc0
 .debug_aranges
                0x00000000       0x50 ./ampak_gspi_util.o
 .debug_aranges
                0x00000050       0x28 ./app.o
 .debug_aranges
                0x00000078       0x20 ./main.o
 .debug_aranges
                0x00000098       0x60 ./autogen/sl_event_handler.o
 .debug_aranges
                0x000000f8       0x20 ./simplicity_sdk_2024.6.0/platform/service/system/src/sl_system_init.o
 .debug_aranges
                0x00000118       0x20 ./simplicity_sdk_2024.6.0/platform/service/system/src/sl_system_process_action.o
 .debug_aranges
                0x00000138       0x20 ./wiseconnect3_sdk_3.3.0/components/board/silabs/src/rsi_board.o
 .debug_aranges
                0x00000158       0x68 ./wiseconnect3_sdk_3.3.0/components/device/silabs/si91x/mcu/core/chip/src/iPMU_prog/iPMU_dotc/ipmu_apis.o
 .debug_aranges
                0x000001c0       0x18 ./wiseconnect3_sdk_3.3.0/components/device/silabs/si91x/mcu/core/chip/src/iPMU_prog/iPMU_dotc/rsi_system_config_917.o
 .debug_aranges
                0x000001d8       0x48 ./wiseconnect3_sdk_3.3.0/components/device/silabs/si91x/mcu/core/chip/src/rsi_deepsleep_soc.o
 .debug_aranges
                0x00000220       0x40 ./wiseconnect3_sdk_3.3.0/components/device/silabs/si91x/mcu/core/chip/src/startup_si91x.o
 .debug_aranges
                0x00000260       0x30 ./wiseconnect3_sdk_3.3.0/components/device/silabs/si91x/mcu/core/chip/src/system_si91x.o
 .debug_aranges
                0x00000290       0x50 ./wiseconnect3_sdk_3.3.0/components/device/silabs/si91x/mcu/core/common/src/rsi_debug.o
 .debug_aranges
                0x000002e0       0x18 ./wiseconnect3_sdk_3.3.0/components/device/silabs/si91x/mcu/core/common/src/sl_si91x_stack_object_declare.o
 .debug_aranges
                0x000002f8       0xc0 ./wiseconnect3_sdk_3.3.0/components/device/silabs/si91x/mcu/core/common/src/syscalls.o
 .debug_aranges
                0x000003b8       0xc8 ./wiseconnect3_sdk_3.3.0/components/device/silabs/si91x/mcu/drivers/cmsis_driver/GSPI.o
 .debug_aranges
                0x00000480       0x30 ./wiseconnect3_sdk_3.3.0/components/device/silabs/si91x/mcu/drivers/cmsis_driver/UDMA.o
 .debug_aranges
                0x000004b0      0x1a8 ./wiseconnect3_sdk_3.3.0/components/device/silabs/si91x/mcu/drivers/cmsis_driver/USART.o
 .debug_aranges
                0x00000658       0x20 ./wiseconnect3_sdk_3.3.0/components/device/silabs/si91x/mcu/drivers/peripheral_drivers/src/clock_update.o
 .debug_aranges
                0x00000678       0xa8 ./wiseconnect3_sdk_3.3.0/components/device/silabs/si91x/mcu/drivers/peripheral_drivers/src/rsi_gspi.o
 .debug_aranges
                0x00000720       0xc8 ./wiseconnect3_sdk_3.3.0/components/device/silabs/si91x/mcu/drivers/peripheral_drivers/src/rsi_usart.o
 .debug_aranges
                0x000007e8      0x220 ./wiseconnect3_sdk_3.3.0/components/device/silabs/si91x/mcu/drivers/systemlevel/src/rsi_ipmu.o
 .debug_aranges
                0x00000a08       0x50 ./wiseconnect3_sdk_3.3.0/components/device/silabs/si91x/mcu/drivers/systemlevel/src/rsi_pll.o
 .debug_aranges
                0x00000a58       0x40 ./wiseconnect3_sdk_3.3.0/components/device/silabs/si91x/mcu/drivers/systemlevel/src/rsi_ulpss_clk.o
 .debug_aranges
                0x00000a98       0x98 ./wiseconnect3_sdk_3.3.0/components/device/silabs/si91x/mcu/drivers/unified_api/src/sl_si91x_dma.o
 .debug_aranges
                0x00000b30       0xb0 ./wiseconnect3_sdk_3.3.0/components/device/silabs/si91x/mcu/drivers/unified_api/src/sl_si91x_gspi.o
 .debug_aranges
                0x00000be0       0xe0 ./wiseconnect3_sdk_3.3.0/components/device/silabs/si91x/mcu/drivers/unified_api/src/sl_si91x_ulp_timer.o

.debug_ranges   0x00000000     0x12b0
 .debug_ranges  0x00000000       0xe8 ./ampak_gspi_util.o
 .debug_ranges  0x000000e8       0x18 ./app.o
 .debug_ranges  0x00000100       0x10 ./main.o
 .debug_ranges  0x00000110       0x50 ./autogen/sl_event_handler.o
 .debug_ranges  0x00000160       0x10 ./simplicity_sdk_2024.6.0/platform/service/system/src/sl_system_init.o
 .debug_ranges  0x00000170       0x10 ./simplicity_sdk_2024.6.0/platform/service/system/src/sl_system_process_action.o
 .debug_ranges  0x00000180       0x70 ./wiseconnect3_sdk_3.3.0/components/board/silabs/src/rsi_board.o
 .debug_ranges  0x000001f0      0x228 ./wiseconnect3_sdk_3.3.0/components/device/silabs/si91x/mcu/core/chip/src/iPMU_prog/iPMU_dotc/ipmu_apis.o
 .debug_ranges  0x00000418       0xb0 ./wiseconnect3_sdk_3.3.0/components/device/silabs/si91x/mcu/core/chip/src/rsi_deepsleep_soc.o
 .debug_ranges  0x000004c8       0x30 ./wiseconnect3_sdk_3.3.0/components/device/silabs/si91x/mcu/core/chip/src/startup_si91x.o
 .debug_ranges  0x000004f8       0x20 ./wiseconnect3_sdk_3.3.0/components/device/silabs/si91x/mcu/core/chip/src/system_si91x.o
 .debug_ranges  0x00000518       0x40 ./wiseconnect3_sdk_3.3.0/components/device/silabs/si91x/mcu/core/common/src/rsi_debug.o
 .debug_ranges  0x00000558      0x110 ./wiseconnect3_sdk_3.3.0/components/device/silabs/si91x/mcu/core/common/src/syscalls.o
 .debug_ranges  0x00000668       0xb8 ./wiseconnect3_sdk_3.3.0/components/device/silabs/si91x/mcu/drivers/cmsis_driver/GSPI.o
 .debug_ranges  0x00000720       0x68 ./wiseconnect3_sdk_3.3.0/components/device/silabs/si91x/mcu/drivers/cmsis_driver/UDMA.o
 .debug_ranges  0x00000788      0x1b0 ./wiseconnect3_sdk_3.3.0/components/device/silabs/si91x/mcu/drivers/cmsis_driver/USART.o
 .debug_ranges  0x00000938       0x10 ./wiseconnect3_sdk_3.3.0/components/device/silabs/si91x/mcu/drivers/peripheral_drivers/src/clock_update.o
 .debug_ranges  0x00000948      0x100 ./wiseconnect3_sdk_3.3.0/components/device/silabs/si91x/mcu/drivers/peripheral_drivers/src/rsi_gspi.o
 .debug_ranges  0x00000a48      0x158 ./wiseconnect3_sdk_3.3.0/components/device/silabs/si91x/mcu/drivers/peripheral_drivers/src/rsi_usart.o
 .debug_ranges  0x00000ba0      0x210 ./wiseconnect3_sdk_3.3.0/components/device/silabs/si91x/mcu/drivers/systemlevel/src/rsi_ipmu.o
 .debug_ranges  0x00000db0       0x40 ./wiseconnect3_sdk_3.3.0/components/device/silabs/si91x/mcu/drivers/systemlevel/src/rsi_pll.o
 .debug_ranges  0x00000df0       0x30 ./wiseconnect3_sdk_3.3.0/components/device/silabs/si91x/mcu/drivers/systemlevel/src/rsi_ulpss_clk.o
 .debug_ranges  0x00000e20      0x210 ./wiseconnect3_sdk_3.3.0/components/device/silabs/si91x/mcu/drivers/unified_api/src/sl_si91x_dma.o
 .debug_ranges  0x00001030       0xd0 ./wiseconnect3_sdk_3.3.0/components/device/silabs/si91x/mcu/drivers/unified_api/src/sl_si91x_gspi.o
 .debug_ranges  0x00001100      0x1b0 ./wiseconnect3_sdk_3.3.0/components/device/silabs/si91x/mcu/drivers/unified_api/src/sl_si91x_ulp_timer.o

.debug_line     0x00000000    0x118e4
 .debug_line    0x00000000      0xa28 ./ampak_gspi_util.o
 .debug_line    0x00000a28       0x69 ./app.o
 .debug_line    0x00000a91       0xf1 ./main.o
 .debug_line    0x00000b82      0x27e ./autogen/sl_event_handler.o
 .debug_line    0x00000e00      0x10a ./simplicity_sdk_2024.6.0/platform/service/system/src/sl_system_init.o
 .debug_line    0x00000f0a      0x113 ./simplicity_sdk_2024.6.0/platform/service/system/src/sl_system_process_action.o
 .debug_line    0x0000101d      0x724 ./wiseconnect3_sdk_3.3.0/components/board/silabs/src/rsi_board.o
 .debug_line    0x00001741      0xcad ./wiseconnect3_sdk_3.3.0/components/device/silabs/si91x/mcu/core/chip/src/iPMU_prog/iPMU_dotc/ipmu_apis.o
 .debug_line    0x000023ee      0x251 ./wiseconnect3_sdk_3.3.0/components/device/silabs/si91x/mcu/core/chip/src/iPMU_prog/iPMU_dotc/rsi_system_config_917.o
 .debug_line    0x0000263f      0xcee ./wiseconnect3_sdk_3.3.0/components/device/silabs/si91x/mcu/core/chip/src/rsi_deepsleep_soc.o
 .debug_line    0x0000332d      0x309 ./wiseconnect3_sdk_3.3.0/components/device/silabs/si91x/mcu/core/chip/src/startup_si91x.o
 .debug_line    0x00003636      0x995 ./wiseconnect3_sdk_3.3.0/components/device/silabs/si91x/mcu/core/chip/src/system_si91x.o
 .debug_line    0x00003fcb      0x5da ./wiseconnect3_sdk_3.3.0/components/device/silabs/si91x/mcu/core/common/src/rsi_debug.o
 .debug_line    0x000045a5       0xbf ./wiseconnect3_sdk_3.3.0/components/device/silabs/si91x/mcu/core/common/src/sl_si91x_stack_object_declare.o
 .debug_line    0x00004664      0xa66 ./wiseconnect3_sdk_3.3.0/components/device/silabs/si91x/mcu/core/common/src/syscalls.o
 .debug_line    0x000050ca      0x7af ./wiseconnect3_sdk_3.3.0/components/device/silabs/si91x/mcu/drivers/cmsis_driver/GSPI.o
 .debug_line    0x00005879      0xc64 ./wiseconnect3_sdk_3.3.0/components/device/silabs/si91x/mcu/drivers/cmsis_driver/UDMA.o
 .debug_line    0x000064dd      0xcae ./wiseconnect3_sdk_3.3.0/components/device/silabs/si91x/mcu/drivers/cmsis_driver/USART.o
 .debug_line    0x0000718b      0x9d3 ./wiseconnect3_sdk_3.3.0/components/device/silabs/si91x/mcu/drivers/peripheral_drivers/src/clock_update.o
 .debug_line    0x00007b5e     0x1d77 ./wiseconnect3_sdk_3.3.0/components/device/silabs/si91x/mcu/drivers/peripheral_drivers/src/rsi_gspi.o
 .debug_line    0x000098d5     0x214a ./wiseconnect3_sdk_3.3.0/components/device/silabs/si91x/mcu/drivers/peripheral_drivers/src/rsi_usart.o
 .debug_line    0x0000ba1f     0x197c ./wiseconnect3_sdk_3.3.0/components/device/silabs/si91x/mcu/drivers/systemlevel/src/rsi_ipmu.o
 .debug_line    0x0000d39b      0x7d6 ./wiseconnect3_sdk_3.3.0/components/device/silabs/si91x/mcu/drivers/systemlevel/src/rsi_pll.o
 .debug_line    0x0000db71      0x72f ./wiseconnect3_sdk_3.3.0/components/device/silabs/si91x/mcu/drivers/systemlevel/src/rsi_ulpss_clk.o
 .debug_line    0x0000e2a0     0x14f0 ./wiseconnect3_sdk_3.3.0/components/device/silabs/si91x/mcu/drivers/unified_api/src/sl_si91x_dma.o
 .debug_line    0x0000f790      0xbe7 ./wiseconnect3_sdk_3.3.0/components/device/silabs/si91x/mcu/drivers/unified_api/src/sl_si91x_gspi.o
 .debug_line    0x00010377     0x156d ./wiseconnect3_sdk_3.3.0/components/device/silabs/si91x/mcu/drivers/unified_api/src/sl_si91x_ulp_timer.o

.debug_str      0x00000000    0x14ba2
 .debug_str     0x00000000      0x920 ./ampak_gspi_util.o
                                0xa2c (size before relaxing)
 .debug_str     0x00000920        0x9 ./app.o
                                0x1e2 (size before relaxing)
 .debug_str     0x00000929       0x37 ./main.o
                                0x168 (size before relaxing)
 .debug_str     0x00000960      0x113 ./autogen/sl_event_handler.o
                                0x2ca (size before relaxing)
 .debug_str     0x00000a73       0x63 ./simplicity_sdk_2024.6.0/platform/service/system/src/sl_system_init.o
                                0x1da (size before relaxing)
 .debug_str     0x00000ad6       0x6d ./simplicity_sdk_2024.6.0/platform/service/system/src/sl_system_process_action.o
                                0x207 (size before relaxing)
 .debug_str     0x00000b43     0xc2b7 ./wiseconnect3_sdk_3.3.0/components/board/silabs/src/rsi_board.o
                               0xce95 (size before relaxing)
 .debug_str     0x0000cdfa      0x8ee ./wiseconnect3_sdk_3.3.0/components/device/silabs/si91x/mcu/core/chip/src/iPMU_prog/iPMU_dotc/ipmu_apis.o
                               0x19b6 (size before relaxing)
 .debug_str     0x0000d6e8      0x4fc ./wiseconnect3_sdk_3.3.0/components/device/silabs/si91x/mcu/core/chip/src/iPMU_prog/iPMU_dotc/rsi_system_config_917.o
                                0x841 (size before relaxing)
 .debug_str     0x0000dbe4     0x3016 ./wiseconnect3_sdk_3.3.0/components/device/silabs/si91x/mcu/core/chip/src/rsi_deepsleep_soc.o
                               0x5147 (size before relaxing)
 .debug_str     0x00010bfa      0x167 ./wiseconnect3_sdk_3.3.0/components/device/silabs/si91x/mcu/core/chip/src/startup_si91x.o
                                0x36d (size before relaxing)
 .debug_str     0x00010d61      0x764 ./wiseconnect3_sdk_3.3.0/components/device/silabs/si91x/mcu/core/chip/src/system_si91x.o
                               0xfc9d (size before relaxing)
 .debug_str     0x000114c5      0x19a ./wiseconnect3_sdk_3.3.0/components/device/silabs/si91x/mcu/core/common/src/rsi_debug.o
                                0xb79 (size before relaxing)
 .debug_str     0x0001165f       0xa8 ./wiseconnect3_sdk_3.3.0/components/device/silabs/si91x/mcu/core/common/src/sl_si91x_stack_object_declare.o
                                0x246 (size before relaxing)
 .debug_str     0x00011707      0x3e8 ./wiseconnect3_sdk_3.3.0/components/device/silabs/si91x/mcu/core/common/src/syscalls.o
                                0x6a8 (size before relaxing)
 .debug_str     0x00011aef      0x4d6 ./wiseconnect3_sdk_3.3.0/components/device/silabs/si91x/mcu/drivers/cmsis_driver/GSPI.o
                               0x236e (size before relaxing)
 .debug_str     0x00011fc5      0x147 ./wiseconnect3_sdk_3.3.0/components/device/silabs/si91x/mcu/drivers/cmsis_driver/UDMA.o
                               0xcf8b (size before relaxing)
 .debug_str     0x0001210c      0x6d2 ./wiseconnect3_sdk_3.3.0/components/device/silabs/si91x/mcu/drivers/cmsis_driver/USART.o
                               0x3633 (size before relaxing)
 .debug_str     0x000127de      0x141 ./wiseconnect3_sdk_3.3.0/components/device/silabs/si91x/mcu/drivers/peripheral_drivers/src/clock_update.o
                               0x36b5 (size before relaxing)
 .debug_str     0x0001291f      0x444 ./wiseconnect3_sdk_3.3.0/components/device/silabs/si91x/mcu/drivers/peripheral_drivers/src/rsi_gspi.o
                               0xe3b7 (size before relaxing)
 .debug_str     0x00012d63      0x283 ./wiseconnect3_sdk_3.3.0/components/device/silabs/si91x/mcu/drivers/peripheral_drivers/src/rsi_usart.o
                               0xe25b (size before relaxing)
 .debug_str     0x00012fe6      0x735 ./wiseconnect3_sdk_3.3.0/components/device/silabs/si91x/mcu/drivers/systemlevel/src/rsi_ipmu.o
                               0x3d2a (size before relaxing)
 .debug_str     0x0001371b      0x1f7 ./wiseconnect3_sdk_3.3.0/components/device/silabs/si91x/mcu/drivers/systemlevel/src/rsi_pll.o
                               0x52af (size before relaxing)
 .debug_str     0x00013912      0x19a ./wiseconnect3_sdk_3.3.0/components/device/silabs/si91x/mcu/drivers/systemlevel/src/rsi_ulpss_clk.o
                               0x367a (size before relaxing)
 .debug_str     0x00013aac      0x4bd ./wiseconnect3_sdk_3.3.0/components/device/silabs/si91x/mcu/drivers/unified_api/src/sl_si91x_dma.o
                               0xd581 (size before relaxing)
 .debug_str     0x00013f69      0x323 ./wiseconnect3_sdk_3.3.0/components/device/silabs/si91x/mcu/drivers/unified_api/src/sl_si91x_gspi.o
                                0xb58 (size before relaxing)
 .debug_str     0x0001428c      0x916 ./wiseconnect3_sdk_3.3.0/components/device/silabs/si91x/mcu/drivers/unified_api/src/sl_si91x_ulp_timer.o
                               0xd991 (size before relaxing)

.debug_frame    0x00000000     0x2ef0
 .debug_frame   0x00000000       0xfc ./ampak_gspi_util.o
 .debug_frame   0x000000fc       0x30 ./app.o
 .debug_frame   0x0000012c       0x28 ./main.o
 .debug_frame   0x00000154       0xac ./autogen/sl_event_handler.o
 .debug_frame   0x00000200       0x2c ./simplicity_sdk_2024.6.0/platform/service/system/src/sl_system_init.o
 .debug_frame   0x0000022c       0x2c ./simplicity_sdk_2024.6.0/platform/service/system/src/sl_system_process_action.o
 .debug_frame   0x00000258       0x34 ./wiseconnect3_sdk_3.3.0/components/board/silabs/src/rsi_board.o
 .debug_frame   0x0000028c      0x110 ./wiseconnect3_sdk_3.3.0/components/device/silabs/si91x/mcu/core/chip/src/iPMU_prog/iPMU_dotc/ipmu_apis.o
 .debug_frame   0x0000039c       0x9c ./wiseconnect3_sdk_3.3.0/components/device/silabs/si91x/mcu/core/chip/src/rsi_deepsleep_soc.o
 .debug_frame   0x00000438       0x6c ./wiseconnect3_sdk_3.3.0/components/device/silabs/si91x/mcu/core/chip/src/startup_si91x.o
 .debug_frame   0x000004a4       0x5c ./wiseconnect3_sdk_3.3.0/components/device/silabs/si91x/mcu/core/chip/src/system_si91x.o
 .debug_frame   0x00000500       0xc8 ./wiseconnect3_sdk_3.3.0/components/device/silabs/si91x/mcu/core/common/src/rsi_debug.o
 .debug_frame   0x000005c8      0x1ec ./wiseconnect3_sdk_3.3.0/components/device/silabs/si91x/mcu/core/common/src/syscalls.o
 .debug_frame   0x000007b4      0x1a8 ./wiseconnect3_sdk_3.3.0/components/device/silabs/si91x/mcu/drivers/cmsis_driver/GSPI.o
 .debug_frame   0x0000095c       0x74 ./wiseconnect3_sdk_3.3.0/components/device/silabs/si91x/mcu/drivers/cmsis_driver/UDMA.o
 .debug_frame   0x000009d0      0x3ec ./wiseconnect3_sdk_3.3.0/components/device/silabs/si91x/mcu/drivers/cmsis_driver/USART.o
 .debug_frame   0x00000dbc       0x2c ./wiseconnect3_sdk_3.3.0/components/device/silabs/si91x/mcu/drivers/peripheral_drivers/src/clock_update.o
 .debug_frame   0x00000de8      0x1e8 ./wiseconnect3_sdk_3.3.0/components/device/silabs/si91x/mcu/drivers/peripheral_drivers/src/rsi_gspi.o
 .debug_frame   0x00000fd0      0x278 ./wiseconnect3_sdk_3.3.0/components/device/silabs/si91x/mcu/drivers/peripheral_drivers/src/rsi_usart.o
 .debug_frame   0x00001248      0x4e4 ./wiseconnect3_sdk_3.3.0/components/device/silabs/si91x/mcu/drivers/systemlevel/src/rsi_ipmu.o
 .debug_frame   0x0000172c       0xa4 ./wiseconnect3_sdk_3.3.0/components/device/silabs/si91x/mcu/drivers/systemlevel/src/rsi_pll.o
 .debug_frame   0x000017d0       0x78 ./wiseconnect3_sdk_3.3.0/components/device/silabs/si91x/mcu/drivers/systemlevel/src/rsi_ulpss_clk.o
 .debug_frame   0x00001848      0x1b4 ./wiseconnect3_sdk_3.3.0/components/device/silabs/si91x/mcu/drivers/unified_api/src/sl_si91x_dma.o
 .debug_frame   0x000019fc      0x204 ./wiseconnect3_sdk_3.3.0/components/device/silabs/si91x/mcu/drivers/unified_api/src/sl_si91x_gspi.o
 .debug_frame   0x00001c00      0x22c ./wiseconnect3_sdk_3.3.0/components/device/silabs/si91x/mcu/drivers/unified_api/src/sl_si91x_ulp_timer.o
 .debug_frame   0x00001e2c       0xac c:/siliconlabs/simplicitystudio/v5/developer/toolchains/gnu_arm/12.2.rel1_2023.7/bin/../lib/gcc/arm-none-eabi/12.2.1/thumb/v7e-m+fp/softfp\libgcc.a(_arm_addsubdf3.o)
 .debug_frame   0x00001ed8       0x50 c:/siliconlabs/simplicitystudio/v5/developer/toolchains/gnu_arm/12.2.rel1_2023.7/bin/../lib/gcc/arm-none-eabi/12.2.1/thumb/v7e-m+fp/softfp\libgcc.a(_arm_muldivdf3.o)
 .debug_frame   0x00001f28       0x24 c:/siliconlabs/simplicitystudio/v5/developer/toolchains/gnu_arm/12.2.rel1_2023.7/bin/../lib/gcc/arm-none-eabi/12.2.1/thumb/v7e-m+fp/softfp\libgcc.a(_arm_fixunsdfsi.o)
 .debug_frame   0x00001f4c       0x94 c:/siliconlabs/simplicitystudio/v5/developer/toolchains/gnu_arm/12.2.rel1_2023.7/bin/../lib/gcc/arm-none-eabi/12.2.1/thumb/v7e-m+fp/softfp\libc_nano.a(libc_a-nano-vfprintf_float.o)
 .debug_frame   0x00001fe0       0x60 c:/siliconlabs/simplicitystudio/v5/developer/toolchains/gnu_arm/12.2.rel1_2023.7/bin/../lib/gcc/arm-none-eabi/12.2.1/thumb/v7e-m+fp/softfp\libc_nano.a(libc_a-nano-vfprintf_i.o)
 .debug_frame   0x00002040      0x144 c:/siliconlabs/simplicitystudio/v5/developer/toolchains/gnu_arm/12.2.rel1_2023.7/bin/../lib/gcc/arm-none-eabi/12.2.1/thumb/v7e-m+fp/softfp\libc_nano.a(libc_a-findfp.o)
 .debug_frame   0x00002184       0x34 c:/siliconlabs/simplicitystudio/v5/developer/toolchains/gnu_arm/12.2.rel1_2023.7/bin/../lib/gcc/arm-none-eabi/12.2.1/thumb/v7e-m+fp/softfp\libc_nano.a(libc_a-fwalk.o)
 .debug_frame   0x000021b8       0x6c c:/siliconlabs/simplicitystudio/v5/developer/toolchains/gnu_arm/12.2.rel1_2023.7/bin/../lib/gcc/arm-none-eabi/12.2.1/thumb/v7e-m+fp/softfp\libc_nano.a(libc_a-printf.o)
 .debug_frame   0x00002224       0x3c c:/siliconlabs/simplicitystudio/v5/developer/toolchains/gnu_arm/12.2.rel1_2023.7/bin/../lib/gcc/arm-none-eabi/12.2.1/thumb/v7e-m+fp/softfp\libc_nano.a(libc_a-puts.o)
 .debug_frame   0x00002260       0x88 c:/siliconlabs/simplicitystudio/v5/developer/toolchains/gnu_arm/12.2.rel1_2023.7/bin/../lib/gcc/arm-none-eabi/12.2.1/thumb/v7e-m+fp/softfp\libc_nano.a(libc_a-stdio.o)
 .debug_frame   0x000022e8       0x40 c:/siliconlabs/simplicitystudio/v5/developer/toolchains/gnu_arm/12.2.rel1_2023.7/bin/../lib/gcc/arm-none-eabi/12.2.1/thumb/v7e-m+fp/softfp\libc_nano.a(libc_a-wbuf.o)
 .debug_frame   0x00002328       0x2c c:/siliconlabs/simplicitystudio/v5/developer/toolchains/gnu_arm/12.2.rel1_2023.7/bin/../lib/gcc/arm-none-eabi/12.2.1/thumb/v7e-m+fp/softfp\libc_nano.a(libc_a-wsetup.o)
 .debug_frame   0x00002354       0x20 c:/siliconlabs/simplicitystudio/v5/developer/toolchains/gnu_arm/12.2.rel1_2023.7/bin/../lib/gcc/arm-none-eabi/12.2.1/thumb/v7e-m+fp/softfp\libc_nano.a(libc_a-memset.o)
 .debug_frame   0x00002374       0x40 c:/siliconlabs/simplicitystudio/v5/developer/toolchains/gnu_arm/12.2.rel1_2023.7/bin/../lib/gcc/arm-none-eabi/12.2.1/thumb/v7e-m+fp/softfp\libc_nano.a(libc_a-localeconv.o)
 .debug_frame   0x000023b4       0x2c c:/siliconlabs/simplicitystudio/v5/developer/toolchains/gnu_arm/12.2.rel1_2023.7/bin/../lib/gcc/arm-none-eabi/12.2.1/thumb/v7e-m+fp/softfp\libc_nano.a(libc_a-closer.o)
 .debug_frame   0x000023e0       0x38 c:/siliconlabs/simplicitystudio/v5/developer/toolchains/gnu_arm/12.2.rel1_2023.7/bin/../lib/gcc/arm-none-eabi/12.2.1/thumb/v7e-m+fp/softfp\libc_nano.a(libc_a-reent.o)
 .debug_frame   0x00002418       0x2c c:/siliconlabs/simplicitystudio/v5/developer/toolchains/gnu_arm/12.2.rel1_2023.7/bin/../lib/gcc/arm-none-eabi/12.2.1/thumb/v7e-m+fp/softfp\libc_nano.a(libc_a-lseekr.o)
 .debug_frame   0x00002444       0x2c c:/siliconlabs/simplicitystudio/v5/developer/toolchains/gnu_arm/12.2.rel1_2023.7/bin/../lib/gcc/arm-none-eabi/12.2.1/thumb/v7e-m+fp/softfp\libc_nano.a(libc_a-readr.o)
 .debug_frame   0x00002470       0x2c c:/siliconlabs/simplicitystudio/v5/developer/toolchains/gnu_arm/12.2.rel1_2023.7/bin/../lib/gcc/arm-none-eabi/12.2.1/thumb/v7e-m+fp/softfp\libc_nano.a(libc_a-writer.o)
 .debug_frame   0x0000249c       0x20 c:/siliconlabs/simplicitystudio/v5/developer/toolchains/gnu_arm/12.2.rel1_2023.7/bin/../lib/gcc/arm-none-eabi/12.2.1/thumb/v7e-m+fp/softfp\libc_nano.a(libc_a-errno.o)
 .debug_frame   0x000024bc       0xb0 c:/siliconlabs/simplicitystudio/v5/developer/toolchains/gnu_arm/12.2.rel1_2023.7/bin/../lib/gcc/arm-none-eabi/12.2.1/thumb/v7e-m+fp/softfp\libc_nano.a(libc_a-lock.o)
 .debug_frame   0x0000256c       0x6c c:/siliconlabs/simplicitystudio/v5/developer/toolchains/gnu_arm/12.2.rel1_2023.7/bin/../lib/gcc/arm-none-eabi/12.2.1/thumb/v7e-m+fp/softfp\libc_nano.a(libc_a-dtoa.o)
 .debug_frame   0x000025d8       0x38 c:/siliconlabs/simplicitystudio/v5/developer/toolchains/gnu_arm/12.2.rel1_2023.7/bin/../lib/gcc/arm-none-eabi/12.2.1/thumb/v7e-m+fp/softfp\libc_nano.a(libc_a-freer.o)
 .debug_frame   0x00002610       0x30 c:/siliconlabs/simplicitystudio/v5/developer/toolchains/gnu_arm/12.2.rel1_2023.7/bin/../lib/gcc/arm-none-eabi/12.2.1/thumb/v7e-m+fp/softfp\libc_nano.a(libc_a-malloc.o)
 .debug_frame   0x00002640       0x4c c:/siliconlabs/simplicitystudio/v5/developer/toolchains/gnu_arm/12.2.rel1_2023.7/bin/../lib/gcc/arm-none-eabi/12.2.1/thumb/v7e-m+fp/softfp\libc_nano.a(libc_a-mallocr.o)
 .debug_frame   0x0000268c       0x30 c:/siliconlabs/simplicitystudio/v5/developer/toolchains/gnu_arm/12.2.rel1_2023.7/bin/../lib/gcc/arm-none-eabi/12.2.1/thumb/v7e-m+fp/softfp\libc_nano.a(libc_a-mlock.o)
 .debug_frame   0x000026bc      0x258 c:/siliconlabs/simplicitystudio/v5/developer/toolchains/gnu_arm/12.2.rel1_2023.7/bin/../lib/gcc/arm-none-eabi/12.2.1/thumb/v7e-m+fp/softfp\libc_nano.a(libc_a-mprec.o)
 .debug_frame   0x00002914       0xa8 c:/siliconlabs/simplicitystudio/v5/developer/toolchains/gnu_arm/12.2.rel1_2023.7/bin/../lib/gcc/arm-none-eabi/12.2.1/thumb/v7e-m+fp/softfp\libc_nano.a(libc_a-nano-vfprintf.o)
 .debug_frame   0x000029bc       0x5c c:/siliconlabs/simplicitystudio/v5/developer/toolchains/gnu_arm/12.2.rel1_2023.7/bin/../lib/gcc/arm-none-eabi/12.2.1/thumb/v7e-m+fp/softfp\libc_nano.a(libc_a-fflush.o)
 .debug_frame   0x00002a18       0x58 c:/siliconlabs/simplicitystudio/v5/developer/toolchains/gnu_arm/12.2.rel1_2023.7/bin/../lib/gcc/arm-none-eabi/12.2.1/thumb/v7e-m+fp/softfp\libc_nano.a(libc_a-makebuf.o)
 .debug_frame   0x00002a70       0x48 c:/siliconlabs/simplicitystudio/v5/developer/toolchains/gnu_arm/12.2.rel1_2023.7/bin/../lib/gcc/arm-none-eabi/12.2.1/thumb/v7e-m+fp/softfp\libc_nano.a(libc_a-locale.o)
 .debug_frame   0x00002ab8       0x2c c:/siliconlabs/simplicitystudio/v5/developer/toolchains/gnu_arm/12.2.rel1_2023.7/bin/../lib/gcc/arm-none-eabi/12.2.1/thumb/v7e-m+fp/softfp\libc_nano.a(libc_a-fstatr.o)
 .debug_frame   0x00002ae4       0x2c c:/siliconlabs/simplicitystudio/v5/developer/toolchains/gnu_arm/12.2.rel1_2023.7/bin/../lib/gcc/arm-none-eabi/12.2.1/thumb/v7e-m+fp/softfp\libc_nano.a(libc_a-isattyr.o)
 .debug_frame   0x00002b10       0x2c c:/siliconlabs/simplicitystudio/v5/developer/toolchains/gnu_arm/12.2.rel1_2023.7/bin/../lib/gcc/arm-none-eabi/12.2.1/thumb/v7e-m+fp/softfp\libc_nano.a(libc_a-sbrkr.o)
 .debug_frame   0x00002b3c       0x28 c:/siliconlabs/simplicitystudio/v5/developer/toolchains/gnu_arm/12.2.rel1_2023.7/bin/../lib/gcc/arm-none-eabi/12.2.1/thumb/v7e-m+fp/softfp\libc_nano.a(libc_a-memcpy-stub.o)
 .debug_frame   0x00002b64       0x40 c:/siliconlabs/simplicitystudio/v5/developer/toolchains/gnu_arm/12.2.rel1_2023.7/bin/../lib/gcc/arm-none-eabi/12.2.1/thumb/v7e-m+fp/softfp\libc_nano.a(libc_a-assert.o)
 .debug_frame   0x00002ba4       0x2c c:/siliconlabs/simplicitystudio/v5/developer/toolchains/gnu_arm/12.2.rel1_2023.7/bin/../lib/gcc/arm-none-eabi/12.2.1/thumb/v7e-m+fp/softfp\libc_nano.a(libc_a-callocr.o)
 .debug_frame   0x00002bd0       0x48 c:/siliconlabs/simplicitystudio/v5/developer/toolchains/gnu_arm/12.2.rel1_2023.7/bin/../lib/gcc/arm-none-eabi/12.2.1/thumb/v7e-m+fp/softfp\libc_nano.a(libc_a-mbtowc_r.o)
 .debug_frame   0x00002c18       0x3c c:/siliconlabs/simplicitystudio/v5/developer/toolchains/gnu_arm/12.2.rel1_2023.7/bin/../lib/gcc/arm-none-eabi/12.2.1/thumb/v7e-m+fp/softfp\libc_nano.a(libc_a-wctomb_r.o)
 .debug_frame   0x00002c54       0x64 c:/siliconlabs/simplicitystudio/v5/developer/toolchains/gnu_arm/12.2.rel1_2023.7/bin/../lib/gcc/arm-none-eabi/12.2.1/thumb/v7e-m+fp/softfp\libc_nano.a(libc_a-fprintf.o)
 .debug_frame   0x00002cb8       0x28 c:/siliconlabs/simplicitystudio/v5/developer/toolchains/gnu_arm/12.2.rel1_2023.7/bin/../lib/gcc/arm-none-eabi/12.2.1/thumb/v7e-m+fp/softfp\libc_nano.a(libc_a-abort.o)
 .debug_frame   0x00002ce0       0xcc c:/siliconlabs/simplicitystudio/v5/developer/toolchains/gnu_arm/12.2.rel1_2023.7/bin/../lib/gcc/arm-none-eabi/12.2.1/thumb/v7e-m+fp/softfp\libc_nano.a(libc_a-signal.o)
 .debug_frame   0x00002dac       0x3c c:/siliconlabs/simplicitystudio/v5/developer/toolchains/gnu_arm/12.2.rel1_2023.7/bin/../lib/gcc/arm-none-eabi/12.2.1/thumb/v7e-m+fp/softfp\libc_nano.a(libc_a-signalr.o)
 .debug_frame   0x00002de8       0xc4 c:/siliconlabs/simplicitystudio/v5/developer/toolchains/gnu_arm/12.2.rel1_2023.7/bin/../lib/gcc/arm-none-eabi/12.2.1/thumb/v7e-m+fp/softfp\libgcc.a(_arm_cmpdf2.o)
 .debug_frame   0x00002eac       0x20 c:/siliconlabs/simplicitystudio/v5/developer/toolchains/gnu_arm/12.2.rel1_2023.7/bin/../lib/gcc/arm-none-eabi/12.2.1/thumb/v7e-m+fp/softfp\libgcc.a(_arm_unorddf2.o)
 .debug_frame   0x00002ecc       0x24 c:/siliconlabs/simplicitystudio/v5/developer/toolchains/gnu_arm/12.2.rel1_2023.7/bin/../lib/gcc/arm-none-eabi/12.2.1/thumb/v7e-m+fp/softfp\libgcc.a(_arm_fixdfsi.o)

.debug_line_str
                0x00000000      0x1c6
 .debug_line_str
                0x00000000       0xd0 c:/siliconlabs/simplicitystudio/v5/developer/toolchains/gnu_arm/12.2.rel1_2023.7/bin/../lib/gcc/arm-none-eabi/12.2.1/thumb/v7e-m+fp/softfp\libgcc.a(_arm_addsubdf3.o)
 .debug_line_str
                0x000000d0       0xd0 c:/siliconlabs/simplicitystudio/v5/developer/toolchains/gnu_arm/12.2.rel1_2023.7/bin/../lib/gcc/arm-none-eabi/12.2.1/thumb/v7e-m+fp/softfp\libgcc.a(_arm_muldivdf3.o)
 .debug_line_str
                0x000000d0       0xd0 c:/siliconlabs/simplicitystudio/v5/developer/toolchains/gnu_arm/12.2.rel1_2023.7/bin/../lib/gcc/arm-none-eabi/12.2.1/thumb/v7e-m+fp/softfp\libgcc.a(_arm_fixunsdfsi.o)
 .debug_line_str
                0x000000d0       0xe3 c:/siliconlabs/simplicitystudio/v5/developer/toolchains/gnu_arm/12.2.rel1_2023.7/bin/../lib/gcc/arm-none-eabi/12.2.1/thumb/v7e-m+fp/softfp\libc_nano.a(libc_a-memchr.o)
 .debug_line_str
                0x000001b3       0x13 c:/siliconlabs/simplicitystudio/v5/developer/toolchains/gnu_arm/12.2.rel1_2023.7/bin/../lib/gcc/arm-none-eabi/12.2.1/thumb/v7e-m+fp/softfp\libc_nano.a(libc_a-strlen.o)
                                 0xed (size before relaxing)
 .debug_line_str
                0x000001c6       0xd0 c:/siliconlabs/simplicitystudio/v5/developer/toolchains/gnu_arm/12.2.rel1_2023.7/bin/../lib/gcc/arm-none-eabi/12.2.1/thumb/v7e-m+fp/softfp\libgcc.a(_arm_cmpdf2.o)
 .debug_line_str
                0x000001c6       0xd0 c:/siliconlabs/simplicitystudio/v5/developer/toolchains/gnu_arm/12.2.rel1_2023.7/bin/../lib/gcc/arm-none-eabi/12.2.1/thumb/v7e-m+fp/softfp\libgcc.a(_arm_unorddf2.o)
 .debug_line_str
                0x000001c6       0xd0 c:/siliconlabs/simplicitystudio/v5/developer/toolchains/gnu_arm/12.2.rel1_2023.7/bin/../lib/gcc/arm-none-eabi/12.2.1/thumb/v7e-m+fp/softfp\libgcc.a(_arm_fixdfsi.o)
